---
triple:          'arm64-apple-darwin'
binary-path:     a.out
relocations:
  - { offsetInCU: 0x38, offset: 0x38, size: 0x8, addend: 0x0, symName: __ZN7atcoder14convolution_llERKNSt3__16vectorIxNS0_9allocatorIxEEEES6_, symObjAddr: 0x68, symBinAddr: 0x100000D84, symSize: 0x384 }
  - { offsetInCU: 0x61, offset: 0x61, size: 0x8, addend: 0x0, symName: __ZZN7atcoder14convolution_llERKNSt3__16vectorIxNS0_9allocatorIxEEEES6_E4MOD1, symObjAddr: 0x1A040, symBinAddr: 0x10001B290, symSize: 0x0 }
  - { offsetInCU: 0x76, offset: 0x76, size: 0x8, addend: 0x0, symName: __ZZN7atcoder14convolution_llERKNSt3__16vectorIxNS0_9allocatorIxEEEES6_E4MOD2, symObjAddr: 0x1A048, symBinAddr: 0x10001B298, symSize: 0x0 }
  - { offsetInCU: 0x8B, offset: 0x8B, size: 0x8, addend: 0x0, symName: __ZZN7atcoder14convolution_llERKNSt3__16vectorIxNS0_9allocatorIxEEEES6_E4MOD3, symObjAddr: 0x1A050, symBinAddr: 0x10001B2A0, symSize: 0x0 }
  - { offsetInCU: 0xA0, offset: 0xA0, size: 0x8, addend: 0x0, symName: __ZZN7atcoder14convolution_llERKNSt3__16vectorIxNS0_9allocatorIxEEEES6_E4M2M3, symObjAddr: 0x1A058, symBinAddr: 0x10001B2A8, symSize: 0x0 }
  - { offsetInCU: 0xB5, offset: 0xB5, size: 0x8, addend: 0x0, symName: __ZZN7atcoder14convolution_llERKNSt3__16vectorIxNS0_9allocatorIxEEEES6_E4M1M3, symObjAddr: 0x1A060, symBinAddr: 0x10001B2B0, symSize: 0x0 }
  - { offsetInCU: 0xCA, offset: 0xCA, size: 0x8, addend: 0x0, symName: __ZZN7atcoder14convolution_llERKNSt3__16vectorIxNS0_9allocatorIxEEEES6_E4M1M2, symObjAddr: 0x1A068, symBinAddr: 0x10001B2B8, symSize: 0x0 }
  - { offsetInCU: 0xDF, offset: 0xDF, size: 0x8, addend: 0x0, symName: __ZZN7atcoder14convolution_llERKNSt3__16vectorIxNS0_9allocatorIxEEEES6_E6M1M2M3, symObjAddr: 0x1A070, symBinAddr: 0x10001B2C0, symSize: 0x0 }
  - { offsetInCU: 0xF4, offset: 0xF4, size: 0x8, addend: 0x0, symName: __ZZN7atcoder14convolution_llERKNSt3__16vectorIxNS0_9allocatorIxEEEES6_E2i1, symObjAddr: 0x1A078, symBinAddr: 0x10001B2C8, symSize: 0x0 }
  - { offsetInCU: 0x109, offset: 0x109, size: 0x8, addend: 0x0, symName: __ZZN7atcoder14convolution_llERKNSt3__16vectorIxNS0_9allocatorIxEEEES6_E2i2, symObjAddr: 0x1A080, symBinAddr: 0x10001B2D0, symSize: 0x0 }
  - { offsetInCU: 0x11E, offset: 0x11E, size: 0x8, addend: 0x0, symName: __ZZN7atcoder14convolution_llERKNSt3__16vectorIxNS0_9allocatorIxEEEES6_E2i3, symObjAddr: 0x1A088, symBinAddr: 0x10001B2D8, symSize: 0x0 }
  - { offsetInCU: 0x133, offset: 0x133, size: 0x8, addend: 0x0, symName: __ZZN7atcoder14convolution_llERKNSt3__16vectorIxNS0_9allocatorIxEEEES6_E6offset, symObjAddr: 0x1A090, symBinAddr: 0x10001B2E0, symSize: 0x0 }
  - { offsetInCU: 0x1EC, offset: 0x1EC, size: 0x8, addend: 0x0, symName: __ZN7atcoder8internal9butterflyINS_13static_modintILi754974721ELPv0EEELS3_0EEEvRNSt3__16vectorIT_NS5_9allocatorIS7_EEEE, symObjAddr: 0x59A8, symBinAddr: 0x1000066C4, symSize: 0x518 }
  - { offsetInCU: 0x211, offset: 0x211, size: 0x8, addend: 0x0, symName: __ZZN7atcoder8internal9butterflyINS_13static_modintILi754974721ELPv0EEELS3_0EEEvRNSt3__16vectorIT_NS5_9allocatorIS7_EEEEE1g, symObjAddr: 0x1A0B8, symBinAddr: 0x10001B308, symSize: 0x0 }
  - { offsetInCU: 0x226, offset: 0x226, size: 0x8, addend: 0x0, symName: __ZZN7atcoder8internal9butterflyINS_13static_modintILi754974721ELPv0EEELS3_0EEEvRNSt3__16vectorIT_NS5_9allocatorIS7_EEEEE5first, symObjAddr: 0x1A1A8, symBinAddr: 0x100020000, symSize: 0x0 }
  - { offsetInCU: 0x23B, offset: 0x23B, size: 0x8, addend: 0x0, symName: __ZZN7atcoder8internal9butterflyINS_13static_modintILi754974721ELPv0EEELS3_0EEEvRNSt3__16vectorIT_NS5_9allocatorIS7_EEEEE5sum_e, symObjAddr: 0x1A1AC, symBinAddr: 0x100020004, symSize: 0x0 }
  - { offsetInCU: 0x40F, offset: 0x40F, size: 0x8, addend: 0x0, symName: __ZN7atcoder8internal13butterfly_invINS_13static_modintILi754974721ELPv0EEELS3_0EEEvRNSt3__16vectorIT_NS5_9allocatorIS7_EEEE, symObjAddr: 0x5F38, symBinAddr: 0x100006C54, symSize: 0x54C }
  - { offsetInCU: 0x434, offset: 0x434, size: 0x8, addend: 0x0, symName: __ZZN7atcoder8internal13butterfly_invINS_13static_modintILi754974721ELPv0EEELS3_0EEEvRNSt3__16vectorIT_NS5_9allocatorIS7_EEEEE1g, symObjAddr: 0x1A0BC, symBinAddr: 0x10001B30C, symSize: 0x0 }
  - { offsetInCU: 0x449, offset: 0x449, size: 0x8, addend: 0x0, symName: __ZZN7atcoder8internal13butterfly_invINS_13static_modintILi754974721ELPv0EEELS3_0EEEvRNSt3__16vectorIT_NS5_9allocatorIS7_EEEEE5first, symObjAddr: 0x1A230, symBinAddr: 0x100020088, symSize: 0x0 }
  - { offsetInCU: 0x45E, offset: 0x45E, size: 0x8, addend: 0x0, symName: __ZZN7atcoder8internal13butterfly_invINS_13static_modintILi754974721ELPv0EEELS3_0EEEvRNSt3__16vectorIT_NS5_9allocatorIS7_EEEEE6sum_ie, symObjAddr: 0x1A234, symBinAddr: 0x10002008C, symSize: 0x0 }
  - { offsetInCU: 0x619, offset: 0x619, size: 0x8, addend: 0x0, symName: __ZN7atcoder8internal9butterflyINS_13static_modintILi167772161ELPv0EEELS3_0EEEvRNSt3__16vectorIT_NS5_9allocatorIS7_EEEE, symObjAddr: 0x9598, symBinAddr: 0x10000A2B4, symSize: 0x518 }
  - { offsetInCU: 0x63E, offset: 0x63E, size: 0x8, addend: 0x0, symName: __ZZN7atcoder8internal9butterflyINS_13static_modintILi167772161ELPv0EEELS3_0EEEvRNSt3__16vectorIT_NS5_9allocatorIS7_EEEEE1g, symObjAddr: 0x1A0C0, symBinAddr: 0x10001B310, symSize: 0x0 }
  - { offsetInCU: 0x653, offset: 0x653, size: 0x8, addend: 0x0, symName: __ZZN7atcoder8internal9butterflyINS_13static_modintILi167772161ELPv0EEELS3_0EEEvRNSt3__16vectorIT_NS5_9allocatorIS7_EEEEE5first, symObjAddr: 0x1A2B8, symBinAddr: 0x100020110, symSize: 0x0 }
  - { offsetInCU: 0x668, offset: 0x668, size: 0x8, addend: 0x0, symName: __ZZN7atcoder8internal9butterflyINS_13static_modintILi167772161ELPv0EEELS3_0EEEvRNSt3__16vectorIT_NS5_9allocatorIS7_EEEEE5sum_e, symObjAddr: 0x1A2BC, symBinAddr: 0x100020114, symSize: 0x0 }
  - { offsetInCU: 0x823, offset: 0x823, size: 0x8, addend: 0x0, symName: __ZN7atcoder8internal13butterfly_invINS_13static_modintILi167772161ELPv0EEELS3_0EEEvRNSt3__16vectorIT_NS5_9allocatorIS7_EEEE, symObjAddr: 0x9B28, symBinAddr: 0x10000A844, symSize: 0x54C }
  - { offsetInCU: 0x848, offset: 0x848, size: 0x8, addend: 0x0, symName: __ZZN7atcoder8internal13butterfly_invINS_13static_modintILi167772161ELPv0EEELS3_0EEEvRNSt3__16vectorIT_NS5_9allocatorIS7_EEEEE1g, symObjAddr: 0x1A0C4, symBinAddr: 0x10001B314, symSize: 0x0 }
  - { offsetInCU: 0x85D, offset: 0x85D, size: 0x8, addend: 0x0, symName: __ZZN7atcoder8internal13butterfly_invINS_13static_modintILi167772161ELPv0EEELS3_0EEEvRNSt3__16vectorIT_NS5_9allocatorIS7_EEEEE5first, symObjAddr: 0x1A340, symBinAddr: 0x100020198, symSize: 0x0 }
  - { offsetInCU: 0x872, offset: 0x872, size: 0x8, addend: 0x0, symName: __ZZN7atcoder8internal13butterfly_invINS_13static_modintILi167772161ELPv0EEELS3_0EEEvRNSt3__16vectorIT_NS5_9allocatorIS7_EEEEE6sum_ie, symObjAddr: 0x1A344, symBinAddr: 0x10002019C, symSize: 0x0 }
  - { offsetInCU: 0xA2D, offset: 0xA2D, size: 0x8, addend: 0x0, symName: __ZN7atcoder8internal9butterflyINS_13static_modintILi469762049ELPv0EEELS3_0EEEvRNSt3__16vectorIT_NS5_9allocatorIS7_EEEE, symObjAddr: 0xCBDC, symBinAddr: 0x10000D8F8, symSize: 0x518 }
  - { offsetInCU: 0xA52, offset: 0xA52, size: 0x8, addend: 0x0, symName: __ZZN7atcoder8internal9butterflyINS_13static_modintILi469762049ELPv0EEELS3_0EEEvRNSt3__16vectorIT_NS5_9allocatorIS7_EEEEE1g, symObjAddr: 0x1A0C8, symBinAddr: 0x10001B318, symSize: 0x0 }
  - { offsetInCU: 0xA67, offset: 0xA67, size: 0x8, addend: 0x0, symName: __ZZN7atcoder8internal9butterflyINS_13static_modintILi469762049ELPv0EEELS3_0EEEvRNSt3__16vectorIT_NS5_9allocatorIS7_EEEEE5first, symObjAddr: 0x1A3C8, symBinAddr: 0x100020220, symSize: 0x0 }
  - { offsetInCU: 0xA7C, offset: 0xA7C, size: 0x8, addend: 0x0, symName: __ZZN7atcoder8internal9butterflyINS_13static_modintILi469762049ELPv0EEELS3_0EEEvRNSt3__16vectorIT_NS5_9allocatorIS7_EEEEE5sum_e, symObjAddr: 0x1A3CC, symBinAddr: 0x100020224, symSize: 0x0 }
  - { offsetInCU: 0xC37, offset: 0xC37, size: 0x8, addend: 0x0, symName: __ZN7atcoder8internal13butterfly_invINS_13static_modintILi469762049ELPv0EEELS3_0EEEvRNSt3__16vectorIT_NS5_9allocatorIS7_EEEE, symObjAddr: 0xD16C, symBinAddr: 0x10000DE88, symSize: 0x54C }
  - { offsetInCU: 0xC5C, offset: 0xC5C, size: 0x8, addend: 0x0, symName: __ZZN7atcoder8internal13butterfly_invINS_13static_modintILi469762049ELPv0EEELS3_0EEEvRNSt3__16vectorIT_NS5_9allocatorIS7_EEEEE1g, symObjAddr: 0x1A0CC, symBinAddr: 0x10001B31C, symSize: 0x0 }
  - { offsetInCU: 0xC71, offset: 0xC71, size: 0x8, addend: 0x0, symName: __ZZN7atcoder8internal13butterfly_invINS_13static_modintILi469762049ELPv0EEELS3_0EEEvRNSt3__16vectorIT_NS5_9allocatorIS7_EEEEE5first, symObjAddr: 0x1A450, symBinAddr: 0x1000202A8, symSize: 0x0 }
  - { offsetInCU: 0xC86, offset: 0xC86, size: 0x8, addend: 0x0, symName: __ZZN7atcoder8internal13butterfly_invINS_13static_modintILi469762049ELPv0EEELS3_0EEEvRNSt3__16vectorIT_NS5_9allocatorIS7_EEEEE6sum_ie, symObjAddr: 0x1A454, symBinAddr: 0x1000202AC, symSize: 0x0 }
  - { offsetInCU: 0xE41, offset: 0xE41, size: 0x8, addend: 0x0, symName: __ZN7atcoder8internal9ceil_pow2Ei, symObjAddr: 0x0, symBinAddr: 0x100000D1C, symSize: 0x4C }
  - { offsetInCU: 0xE7B, offset: 0xE7B, size: 0x8, addend: 0x0, symName: __ZN7atcoder8internal3bsfEj, symObjAddr: 0x4C, symBinAddr: 0x100000D68, symSize: 0x1C }
  - { offsetInCU: 0xEA7, offset: 0xEA7, size: 0x8, addend: 0x0, symName: __ZN7atcoder8internal8safe_modExx, symObjAddr: 0xE34, symBinAddr: 0x100001B50, symSize: 0x58 }
  - { offsetInCU: 0xF49, offset: 0xF49, size: 0x8, addend: 0x0, symName: __ZN7atcoder8internal7inv_gcdExx, symObjAddr: 0x118C, symBinAddr: 0x100001EA8, symSize: 0x150 }
  - { offsetInCU: 0xFE5, offset: 0xFE5, size: 0x8, addend: 0x0, symName: __ZN7atcoder8internal8sa_naiveERKNSt3__16vectorIiNS1_9allocatorIiEEEE, symObjAddr: 0x1958, symBinAddr: 0x100002674, symSize: 0x114 }
  - { offsetInCU: 0x1068, offset: 0x1068, size: 0x8, addend: 0x0, symName: __ZN7atcoder8internal11sa_doublingERKNSt3__16vectorIiNS1_9allocatorIiEEEE, symObjAddr: 0x1C10, symBinAddr: 0x10000292C, symSize: 0x2F0 }
  - { offsetInCU: 0x115A, offset: 0x115A, size: 0x8, addend: 0x0, symName: __ZN7atcoder8internal5sa_isILi10ELi40EEENSt3__16vectorIiNS2_9allocatorIiEEEERKS6_i, symObjAddr: 0x23C0, symBinAddr: 0x1000030DC, symSize: 0xD80 }
  - { offsetInCU: 0x1ACD, offset: 0x1ACD, size: 0x8, addend: 0x0, symName: __ZN7atcoder11convolutionILj754974721ExLPv0EEENSt3__16vectorIT0_NS2_9allocatorIS4_EEEERKS7_S9_, symObjAddr: 0x440, symBinAddr: 0x10000115C, symSize: 0x334 }
  - { offsetInCU: 0x1BCD, offset: 0x1BCD, size: 0x8, addend: 0x0, symName: __ZN7atcoder11convolutionILj167772161ExLPv0EEENSt3__16vectorIT0_NS2_9allocatorIS4_EEEERKS7_S9_, symObjAddr: 0x774, symBinAddr: 0x100001490, symSize: 0x334 }
  - { offsetInCU: 0x1CCC, offset: 0x1CCC, size: 0x8, addend: 0x0, symName: __ZN7atcoder11convolutionILj469762049ExLPv0EEENSt3__16vectorIT0_NS2_9allocatorIS4_EEEERKS7_S9_, symObjAddr: 0xAA8, symBinAddr: 0x1000017C4, symSize: 0x334 }
  - { offsetInCU: 0x1DCC, offset: 0x1DCC, size: 0x8, addend: 0x0, symName: __ZN7atcoder7pow_modExxi, symObjAddr: 0xEB8, symBinAddr: 0x100001BD4, symSize: 0x148 }
  - { offsetInCU: 0x1E3E, offset: 0x1E3E, size: 0x8, addend: 0x0, symName: __ZN7atcoder7inv_modExx, symObjAddr: 0x10E0, symBinAddr: 0x100001DFC, symSize: 0xAC }
  - { offsetInCU: 0x1E86, offset: 0x1E86, size: 0x8, addend: 0x0, symName: __ZN7atcoder3crtERKNSt3__16vectorIxNS0_9allocatorIxEEEES6_, symObjAddr: 0x12DC, symBinAddr: 0x100001FF8, symSize: 0x338 }
  - { offsetInCU: 0x1F6C, offset: 0x1F6C, size: 0x8, addend: 0x0, symName: __ZN7atcoder9floor_sumExxxx, symObjAddr: 0x178C, symBinAddr: 0x1000024A8, symSize: 0x1CC }
  - { offsetInCU: 0x1FEC, offset: 0x1FEC, size: 0x8, addend: 0x0, symName: __ZN7atcoder12suffix_arrayERKNSt3__16vectorIiNS0_9allocatorIiEEEEi, symObjAddr: 0x2180, symBinAddr: 0x100002E9C, symSize: 0x174 }
  - { offsetInCU: 0x2083, offset: 0x2083, size: 0x8, addend: 0x0, symName: __ZN7atcoder12suffix_arrayERKNSt3__112basic_stringIcNS0_11char_traitsIcEENS0_9allocatorIcEEEE, symObjAddr: 0x3140, symBinAddr: 0x100003E5C, symSize: 0xD8 }
  - { offsetInCU: 0x20E7, offset: 0x20E7, size: 0x8, addend: 0x0, symName: __ZN7atcoder9lcp_arrayERKNSt3__112basic_stringIcNS0_11char_traitsIcEENS0_9allocatorIcEEEERKNS0_6vectorIiNS4_IiEEEE, symObjAddr: 0x329C, symBinAddr: 0x100003FB8, symSize: 0xDC }
  - { offsetInCU: 0x2159, offset: 0x2159, size: 0x8, addend: 0x0, symName: __ZN7atcoder9lcp_arrayIiEENSt3__16vectorIiNS1_9allocatorIiEEEERKNS2_IT_NS3_IS6_EEEERKS5_, symObjAddr: 0x3378, symBinAddr: 0x100004094, symSize: 0x30C }
  - { offsetInCU: 0x2219, offset: 0x2219, size: 0x8, addend: 0x0, symName: __ZN7atcoder11z_algorithmERKNSt3__112basic_stringIcNS0_11char_traitsIcEENS0_9allocatorIcEEEE, symObjAddr: 0x3684, symBinAddr: 0x1000043A0, symSize: 0xD4 }
  - { offsetInCU: 0x2282, offset: 0x2282, size: 0x8, addend: 0x0, symName: __ZN7atcoder11z_algorithmIiEENSt3__16vectorIiNS1_9allocatorIiEEEERKNS2_IT_NS3_IS6_EEEE, symObjAddr: 0x3758, symBinAddr: 0x100004474, symSize: 0x308 }
  - { offsetInCU: 0x230A, offset: 0x230A, size: 0x8, addend: 0x0, symName: __ZN7atcoder11convolutionINS_13static_modintILi754974721ELPv0EEELS2_0EEENSt3__16vectorIT_NS4_9allocatorIS6_EEEES9_S9_, symObjAddr: 0x4224, symBinAddr: 0x100004F40, symSize: 0x384 }
  - { offsetInCU: 0x240D, offset: 0x240D, size: 0x8, addend: 0x0, symName: __ZN7atcodermlERKNS_13static_modintILi754974721ELPv0EEES4_, symObjAddr: 0x5858, symBinAddr: 0x100006574, symSize: 0x44 }
  - { offsetInCU: 0x2447, offset: 0x2447, size: 0x8, addend: 0x0, symName: __ZN7atcoderplERKNS_13static_modintILi754974721ELPv0EEES4_, symObjAddr: 0x7958, symBinAddr: 0x100008674, symSize: 0x44 }
  - { offsetInCU: 0x2481, offset: 0x2481, size: 0x8, addend: 0x0, symName: __ZN7atcodermiERKNS_13static_modintILi754974721ELPv0EEES4_, symObjAddr: 0x799C, symBinAddr: 0x1000086B8, symSize: 0x44 }
  - { offsetInCU: 0x24BB, offset: 0x24BB, size: 0x8, addend: 0x0, symName: __ZN7atcoder11convolutionINS_13static_modintILi167772161ELPv0EEELS2_0EEENSt3__16vectorIT_NS4_9allocatorIS6_EEEES9_S9_, symObjAddr: 0x823C, symBinAddr: 0x100008F58, symSize: 0x384 }
  - { offsetInCU: 0x25BE, offset: 0x25BE, size: 0x8, addend: 0x0, symName: __ZN7atcodermlERKNS_13static_modintILi167772161ELPv0EEES4_, symObjAddr: 0x9448, symBinAddr: 0x10000A164, symSize: 0x44 }
  - { offsetInCU: 0x25F8, offset: 0x25F8, size: 0x8, addend: 0x0, symName: __ZN7atcoderplERKNS_13static_modintILi167772161ELPv0EEES4_, symObjAddr: 0xB440, symBinAddr: 0x10000C15C, symSize: 0x44 }
  - { offsetInCU: 0x2632, offset: 0x2632, size: 0x8, addend: 0x0, symName: __ZN7atcodermiERKNS_13static_modintILi167772161ELPv0EEES4_, symObjAddr: 0xB484, symBinAddr: 0x10000C1A0, symSize: 0x44 }
  - { offsetInCU: 0x266C, offset: 0x266C, size: 0x8, addend: 0x0, symName: __ZN7atcoder11convolutionINS_13static_modintILi469762049ELPv0EEELS2_0EEENSt3__16vectorIT_NS4_9allocatorIS6_EEEES9_S9_, symObjAddr: 0xB880, symBinAddr: 0x10000C59C, symSize: 0x384 }
  - { offsetInCU: 0x276F, offset: 0x276F, size: 0x8, addend: 0x0, symName: __ZN7atcodermlERKNS_13static_modintILi469762049ELPv0EEES4_, symObjAddr: 0xCA8C, symBinAddr: 0x10000D7A8, symSize: 0x44 }
  - { offsetInCU: 0x27A9, offset: 0x27A9, size: 0x8, addend: 0x0, symName: __ZN7atcoderplERKNS_13static_modintILi469762049ELPv0EEES4_, symObjAddr: 0xEA84, symBinAddr: 0x10000F7A0, symSize: 0x44 }
  - { offsetInCU: 0x27E3, offset: 0x27E3, size: 0x8, addend: 0x0, symName: __ZN7atcodermiERKNS_13static_modintILi469762049ELPv0EEES4_, symObjAddr: 0xEAC8, symBinAddr: 0x10000F7E4, symSize: 0x44 }
  - { offsetInCU: 0xD450, offset: 0xD450, size: 0x8, addend: 0x0, symName: '__ZNSt3__111__introsortINS_17_ClassicAlgPolicyERZN7atcoder8internal8sa_naiveERKNS_6vectorIiNS_9allocatorIiEEEEE3$_0PiLb0EEEvT1_SD_T0_NS_15iterator_traitsISD_E15difference_typeEb', symObjAddr: 0x10FC8, symBinAddr: 0x100011CE4, symSize: 0x440 }
  - { offsetInCU: 0xD57B, offset: 0xD57B, size: 0x8, addend: 0x0, symName: '__ZNSt3__126__insertion_sort_unguardedB8ue170006INS_17_ClassicAlgPolicyERZN7atcoder8internal8sa_naiveERKNS_6vectorIiNS_9allocatorIiEEEEE3$_0PiEEvT1_SD_T0_', symObjAddr: 0x1181C, symBinAddr: 0x100012538, symSize: 0x12C }
  - { offsetInCU: 0xD66B, offset: 0xD66B, size: 0x8, addend: 0x0, symName: '__ZNSt3__111__sift_downB8ue170006INS_17_ClassicAlgPolicyERZN7atcoder8internal8sa_naiveERKNS_6vectorIiNS_9allocatorIiEEEEE3$_0PiEEvT1_OT0_NS_15iterator_traitsISD_E15difference_typeESD_', symObjAddr: 0x12A7C, symBinAddr: 0x100013798, symSize: 0x220 }
  - { offsetInCU: 0xD718, offset: 0xD718, size: 0x8, addend: 0x0, symName: '__ZNSt3__117__floyd_sift_downB8ue170006INS_17_ClassicAlgPolicyERZN7atcoder8internal8sa_naiveERKNS_6vectorIiNS_9allocatorIiEEEEE3$_0PiEET1_SD_OT0_NS_15iterator_traitsISD_E15difference_typeE', symObjAddr: 0x12E38, symBinAddr: 0x100013B54, symSize: 0x104 }
  - { offsetInCU: 0xD7B0, offset: 0xD7B0, size: 0x8, addend: 0x0, symName: '__ZNSt3__131__partition_with_equals_on_leftB8ue170006INS_17_ClassicAlgPolicyEPiRZN7atcoder8internal8sa_naiveERKNS_6vectorIiNS_9allocatorIiEEEEE3$_0EET0_SD_SD_T1_', symObjAddr: 0x11B7C, symBinAddr: 0x100012898, symSize: 0x220 }
  - { offsetInCU: 0xD86B, offset: 0xD86B, size: 0x8, addend: 0x0, symName: '__ZNSt3__118__bitset_partitionB8ue170006INS_17_ClassicAlgPolicyEPiRZN7atcoder8internal8sa_naiveERKNS_6vectorIiNS_9allocatorIiEEEEE3$_0EENS_4pairIT0_bEESE_SE_T1_', symObjAddr: 0x11D9C, symBinAddr: 0x100012AB8, symSize: 0x330 }
  - { offsetInCU: 0xD964, offset: 0xD964, size: 0x8, addend: 0x0, symName: __ZNSt3__124__swap_bitmap_pos_withinB8ue170006INS_17_ClassicAlgPolicyEPiEEvRT0_S4_RyS5_, symObjAddr: 0x135B4, symBinAddr: 0x1000142D0, symSize: 0x1E0 }
  - { offsetInCU: 0xDA31, offset: 0xDA31, size: 0x8, addend: 0x0, symName: '__ZNSt3__132__partition_with_equals_on_rightB8ue170006INS_17_ClassicAlgPolicyEPiRZN7atcoder8internal8sa_naiveERKNS_6vectorIiNS_9allocatorIiEEEEE3$_0EENS_4pairIT0_bEESE_SE_T1_', symObjAddr: 0x120CC, symBinAddr: 0x100012DE8, symSize: 0x230 }
  - { offsetInCU: 0xDAFB, offset: 0xDAFB, size: 0x8, addend: 0x0, symName: '__ZNSt3__127__insertion_sort_incompleteB8ue170006INS_17_ClassicAlgPolicyERZN7atcoder8internal8sa_naiveERKNS_6vectorIiNS_9allocatorIiEEEEE3$_0PiEEbT1_SD_T0_', symObjAddr: 0x122FC, symBinAddr: 0x100013018, symSize: 0x318 }
  - { offsetInCU: 0xDBF0, offset: 0xDBF0, size: 0x8, addend: 0x0, symName: '__ZNSt3__111__introsortINS_17_ClassicAlgPolicyERZN7atcoder8internal11sa_doublingERKNS_6vectorIiNS_9allocatorIiEEEEE3$_1PiLb0EEEvT1_SD_T0_NS_15iterator_traitsISD_E15difference_typeEb', symObjAddr: 0x13AA8, symBinAddr: 0x1000147C4, symSize: 0x440 }
  - { offsetInCU: 0xDD1B, offset: 0xDD1B, size: 0x8, addend: 0x0, symName: '__ZNSt3__126__insertion_sort_unguardedB8ue170006INS_17_ClassicAlgPolicyERZN7atcoder8internal11sa_doublingERKNS_6vectorIiNS_9allocatorIiEEEEE3$_1PiEEvT1_SD_T0_', symObjAddr: 0x14128, symBinAddr: 0x100014E44, symSize: 0x12C }
  - { offsetInCU: 0xDE0B, offset: 0xDE0B, size: 0x8, addend: 0x0, symName: '__ZNSt3__111__sift_downB8ue170006INS_17_ClassicAlgPolicyERZN7atcoder8internal11sa_doublingERKNS_6vectorIiNS_9allocatorIiEEEEE3$_1PiEEvT1_OT0_NS_15iterator_traitsISD_E15difference_typeESD_', symObjAddr: 0x152AC, symBinAddr: 0x100015FC8, symSize: 0x220 }
  - { offsetInCU: 0xDEB8, offset: 0xDEB8, size: 0x8, addend: 0x0, symName: '__ZNSt3__117__floyd_sift_downB8ue170006INS_17_ClassicAlgPolicyERZN7atcoder8internal11sa_doublingERKNS_6vectorIiNS_9allocatorIiEEEEE3$_1PiEET1_SD_OT0_NS_15iterator_traitsISD_E15difference_typeE', symObjAddr: 0x15668, symBinAddr: 0x100016384, symSize: 0x104 }
  - { offsetInCU: 0xDF50, offset: 0xDF50, size: 0x8, addend: 0x0, symName: '__ZNSt3__131__partition_with_equals_on_leftB8ue170006INS_17_ClassicAlgPolicyEPiRZN7atcoder8internal11sa_doublingERKNS_6vectorIiNS_9allocatorIiEEEEE3$_1EET0_SD_SD_T1_', symObjAddr: 0x14454, symBinAddr: 0x100015170, symSize: 0x220 }
  - { offsetInCU: 0xE00B, offset: 0xE00B, size: 0x8, addend: 0x0, symName: '__ZNSt3__118__bitset_partitionB8ue170006INS_17_ClassicAlgPolicyEPiRZN7atcoder8internal11sa_doublingERKNS_6vectorIiNS_9allocatorIiEEEEE3$_1EENS_4pairIT0_bEESE_SE_T1_', symObjAddr: 0x14674, symBinAddr: 0x100015390, symSize: 0x330 }
  - { offsetInCU: 0xE104, offset: 0xE104, size: 0x8, addend: 0x0, symName: '__ZNSt3__132__partition_with_equals_on_rightB8ue170006INS_17_ClassicAlgPolicyEPiRZN7atcoder8internal11sa_doublingERKNS_6vectorIiNS_9allocatorIiEEEEE3$_1EENS_4pairIT0_bEESE_SE_T1_', symObjAddr: 0x149A4, symBinAddr: 0x1000156C0, symSize: 0x230 }
  - { offsetInCU: 0xE1CE, offset: 0xE1CE, size: 0x8, addend: 0x0, symName: '__ZNSt3__127__insertion_sort_incompleteB8ue170006INS_17_ClassicAlgPolicyERZN7atcoder8internal11sa_doublingERKNS_6vectorIiNS_9allocatorIiEEEEE3$_1PiEEbT1_SD_T0_', symObjAddr: 0x14BD4, symBinAddr: 0x1000158F0, symSize: 0x318 }
  - { offsetInCU: 0xF7F2, offset: 0xF7F2, size: 0x8, addend: 0x0, symName: __ZNSt3__113__fill_n_trueB8ue170006INS_6vectorIbNS_9allocatorIbEEEEEEvNS_14__bit_iteratorIT_Lb0EXLi0EEEENS6_9size_typeE, symObjAddr: 0x176A4, symBinAddr: 0x1000183C0, symSize: 0x160 }
  - { offsetInCU: 0xF8B7, offset: 0xF8B7, size: 0x8, addend: 0x0, symName: __ZNSt3__114__fill_n_falseB8ue170006INS_6vectorIbNS_9allocatorIbEEEEEEvNS_14__bit_iteratorIT_Lb0EXLi0EEEENS6_9size_typeE, symObjAddr: 0x17838, symBinAddr: 0x100018554, symSize: 0x15C }
  - { offsetInCU: 0x10A4E, offset: 0x10A4E, size: 0x8, addend: 0x0, symName: __ZNSt3__14swapB8ue170006IxEENS_9enable_ifIXaasr21is_move_constructibleIT_EE5valuesr18is_move_assignableIS2_EE5valueEvE4typeERS2_S5_, symObjAddr: 0x1638, symBinAddr: 0x100002354, symSize: 0x3C }
  - { offsetInCU: 0x10BD1, offset: 0x10BD1, size: 0x8, addend: 0x0, symName: __ZNSt3__13tieB8ue170006IJxxEEENS_5tupleIJDpRT_EEES4_, symObjAddr: 0x16B0, symBinAddr: 0x1000023CC, symSize: 0x38 }
  - { offsetInCU: 0x11046, offset: 0x11046, size: 0x8, addend: 0x0, symName: __ZNSt3__14iotaB8ue170006INS_11__wrap_iterIPiEEiEEvT_S4_T0_, symObjAddr: 0x1AC8, symBinAddr: 0x1000027E4, symSize: 0x70 }
  - { offsetInCU: 0x1109C, offset: 0x1109C, size: 0x8, addend: 0x0, symName: '__ZNSt3__14sortB8ue170006INS_11__wrap_iterIPiEEZN7atcoder8internal8sa_naiveERKNS_6vectorIiNS_9allocatorIiEEEEE3$_0EEvT_SD_T0_', symObjAddr: 0x1B98, symBinAddr: 0x1000028B4, symSize: 0x4C }
  - { offsetInCU: 0x110F6, offset: 0x110F6, size: 0x8, addend: 0x0, symName: '__ZNSt3__14sortB8ue170006INS_11__wrap_iterIPiEEZN7atcoder8internal11sa_doublingERKNS_6vectorIiNS_9allocatorIiEEEEE3$_1EEvT_SD_T0_', symObjAddr: 0x1F34, symBinAddr: 0x100002C50, symSize: 0x44 }
  - { offsetInCU: 0x11151, offset: 0x11151, size: 0x8, addend: 0x0, symName: __ZNSt3__14swapB8ue170006IiNS_9allocatorIiEEEEvRNS_6vectorIT_T0_EES7_, symObjAddr: 0x2154, symBinAddr: 0x100002E70, symSize: 0x2C }
  - { offsetInCU: 0x1119C, offset: 0x1119C, size: 0x8, addend: 0x0, symName: __ZNSt3__1neB8ue170006IPKiEEbRKNS_11__wrap_iterIT_EES7_, symObjAddr: 0x2354, symBinAddr: 0x100003070, symSize: 0x34 }
  - { offsetInCU: 0x11E36, offset: 0x11E36, size: 0x8, addend: 0x0, symName: __ZNSt3__14endlB8ue170006IcNS_11char_traitsIcEEEERNS_13basic_ostreamIT_T0_EES7_, symObjAddr: 0x3BCC, symBinAddr: 0x1000048E8, symSize: 0x58 }
  - { offsetInCU: 0x11EAA, offset: 0x11EAA, size: 0x8, addend: 0x0, symName: __ZNSt3__1eqB8ue170006IPKiEEbRKNS_11__wrap_iterIT_EES7_, symObjAddr: 0x3FDC, symBinAddr: 0x100004CF8, symSize: 0x48 }
  - { offsetInCU: 0x11EED, offset: 0x11EED, size: 0x8, addend: 0x0, symName: __ZNSt3__122__make_exception_guardB8ue170006INS_6vectorIN7atcoder13static_modintILi754974721ELPv0EEENS_9allocatorIS5_EEE16__destroy_vectorEEENS_28__exception_guard_exceptionsIT_EESB_, symObjAddr: 0x4730, symBinAddr: 0x10000544C, symSize: 0x40 }
  - { offsetInCU: 0x11F22, offset: 0x11F22, size: 0x8, addend: 0x0, symName: __ZNSt3__119__allocate_at_leastB8ue170006INS_9allocatorIN7atcoder13static_modintILi754974721ELPv0EEEEEEENS_19__allocation_resultINS_16allocator_traitsIT_E7pointerEEERS9_m, symObjAddr: 0x4B1C, symBinAddr: 0x100005838, symSize: 0x40 }
  - { offsetInCU: 0x11F65, offset: 0x11F65, size: 0x8, addend: 0x0, symName: __ZNSt3__13minB8ue170006ImEERKT_S3_S3_, symObjAddr: 0x4C58, symBinAddr: 0x100005974, symSize: 0x2C }
  - { offsetInCU: 0x12192, offset: 0x12192, size: 0x8, addend: 0x0, symName: __ZNSt3__13minB8ue170006ImNS_6__lessIvvEEEERKT_S5_S5_T0_, symObjAddr: 0x4CE4, symBinAddr: 0x100005A00, symSize: 0x54 }
  - { offsetInCU: 0x12262, offset: 0x12262, size: 0x8, addend: 0x0, symName: __ZNSt3__120__throw_length_errorB8ue170006EPKc, symObjAddr: 0x4DC0, symBinAddr: 0x100005ADC, symSize: 0x64 }
  - { offsetInCU: 0x1228C, offset: 0x1228C, size: 0x8, addend: 0x0, symName: __ZNSt3__117__libcpp_allocateB8ue170006Emm, symObjAddr: 0x4F30, symBinAddr: 0x100005C4C, symSize: 0x60 }
  - { offsetInCU: 0x122E6, offset: 0x122E6, size: 0x8, addend: 0x0, symName: __ZNSt3__124__is_overaligned_for_newB8ue170006Em, symObjAddr: 0x4F90, symBinAddr: 0x100005CAC, symSize: 0x20 }
  - { offsetInCU: 0x12314, offset: 0x12314, size: 0x8, addend: 0x0, symName: __ZNSt3__121__libcpp_operator_newB8ue170006IJmSt11align_val_tEEEPvDpT_, symObjAddr: 0x4FB0, symBinAddr: 0x100005CCC, symSize: 0x2C }
  - { offsetInCU: 0x12361, offset: 0x12361, size: 0x8, addend: 0x0, symName: __ZNSt3__121__libcpp_operator_newB8ue170006IJmEEEPvDpT_, symObjAddr: 0x4FDC, symBinAddr: 0x100005CF8, symSize: 0x24 }
  - { offsetInCU: 0x1239A, offset: 0x1239A, size: 0x8, addend: 0x0, symName: __ZNSt3__112__to_addressB8ue170006IN7atcoder13static_modintILi754974721ELPv0EEEEEPT_S6_, symObjAddr: 0x50F8, symBinAddr: 0x100005E14, symSize: 0x14 }
  - { offsetInCU: 0x123CF, offset: 0x123CF, size: 0x8, addend: 0x0, symName: __ZNSt3__119__libcpp_deallocateB8ue170006EPvmm, symObjAddr: 0x55F8, symBinAddr: 0x100006314, symSize: 0x60 }
  - { offsetInCU: 0x12434, offset: 0x12434, size: 0x8, addend: 0x0, symName: __ZNSt3__127__do_deallocate_handle_sizeB8ue170006IJSt11align_val_tEEEvPvmDpT_, symObjAddr: 0x5658, symBinAddr: 0x100006374, symSize: 0x30 }
  - { offsetInCU: 0x12487, offset: 0x12487, size: 0x8, addend: 0x0, symName: __ZNSt3__127__do_deallocate_handle_sizeB8ue170006IJEEEvPvmDpT_, symObjAddr: 0x5688, symBinAddr: 0x1000063A4, symSize: 0x28 }
  - { offsetInCU: 0x124C5, offset: 0x124C5, size: 0x8, addend: 0x0, symName: __ZNSt3__124__libcpp_operator_deleteB8ue170006IJPvSt11align_val_tEEEvDpT_, symObjAddr: 0x56B0, symBinAddr: 0x1000063CC, symSize: 0x2C }
  - { offsetInCU: 0x1250E, offset: 0x1250E, size: 0x8, addend: 0x0, symName: __ZNSt3__124__libcpp_operator_deleteB8ue170006IJPvEEEvDpT_, symObjAddr: 0x56DC, symBinAddr: 0x1000063F8, symSize: 0x24 }
  - { offsetInCU: 0x12543, offset: 0x12543, size: 0x8, addend: 0x0, symName: __ZNSt3__13minB8ue170006IiEERKT_S3_S3_, symObjAddr: 0x57C4, symBinAddr: 0x1000064E0, symSize: 0x2C }
  - { offsetInCU: 0x12586, offset: 0x12586, size: 0x8, addend: 0x0, symName: __ZNSt3__14swapB8ue170006IiEENS_9enable_ifIXaasr21is_move_constructibleIT_EE5valuesr18is_move_assignableIS2_EE5valueEvE4typeERS2_S5_, symObjAddr: 0x57F0, symBinAddr: 0x10000650C, symSize: 0x3C }
  - { offsetInCU: 0x125D7, offset: 0x125D7, size: 0x8, addend: 0x0, symName: __ZNSt3__14swapB8ue170006IN7atcoder13static_modintILi754974721ELPv0EEENS_9allocatorIS4_EEEEvRNS_6vectorIT_T0_EESB_, symObjAddr: 0x582C, symBinAddr: 0x100006548, symSize: 0x2C }
  - { offsetInCU: 0x12622, offset: 0x12622, size: 0x8, addend: 0x0, symName: __ZNSt3__13minB8ue170006IiNS_6__lessIvvEEEERKT_S5_S5_T0_, symObjAddr: 0x6580, symBinAddr: 0x10000729C, symSize: 0x54 }
  - { offsetInCU: 0x1267C, offset: 0x1267C, size: 0x8, addend: 0x0, symName: __ZNSt3__14swapB8ue170006IPN7atcoder13static_modintILi754974721ELPv0EEEEENS_9enable_ifIXaasr21is_move_constructibleIT_EE5valuesr18is_move_assignableIS7_EE5valueEvE4typeERS7_SA_, symObjAddr: 0x668C, symBinAddr: 0x1000073A8, symSize: 0x3C }
  - { offsetInCU: 0x126CE, offset: 0x126CE, size: 0x8, addend: 0x0, symName: __ZNSt3__116__swap_allocatorB8ue170006INS_9allocatorIN7atcoder13static_modintILi754974721ELPv0EEEEEEEvRT_S8_NS_17integral_constantIbLb0EEE, symObjAddr: 0x66C8, symBinAddr: 0x1000073E4, symSize: 0x14 }
  - { offsetInCU: 0x1270E, offset: 0x1270E, size: 0x8, addend: 0x0, symName: __ZNSt3__13maxB8ue170006ImEERKT_S3_S3_, symObjAddr: 0x6B18, symBinAddr: 0x100007834, symSize: 0x2C }
  - { offsetInCU: 0x12751, offset: 0x12751, size: 0x8, addend: 0x0, symName: __ZNSt3__13maxB8ue170006ImNS_6__lessIvvEEEERKT_S5_S5_T0_, symObjAddr: 0x6B44, symBinAddr: 0x100007860, symSize: 0x54 }
  - { offsetInCU: 0x127AB, offset: 0x127AB, size: 0x8, addend: 0x0, symName: __ZNSt3__142__uninitialized_allocator_move_if_noexceptB8ue170006INS_9allocatorIN7atcoder13static_modintILi754974721ELPv0EEEEENS_16reverse_iteratorIPS5_EES9_S5_vEET1_RT_T0_SD_SA_, symObjAddr: 0x6E90, symBinAddr: 0x100007BAC, symSize: 0x78 }
  - { offsetInCU: 0x12828, offset: 0x12828, size: 0x8, addend: 0x0, symName: __ZNSt3__14moveB8ue170006INS_16reverse_iteratorIPN7atcoder13static_modintILi754974721ELPv0EEEEES7_EET0_T_S9_S8_, symObjAddr: 0x6F54, symBinAddr: 0x100007C70, symSize: 0x78 }
  - { offsetInCU: 0x12882, offset: 0x12882, size: 0x8, addend: 0x0, symName: __ZNSt3__16__moveB8ue170006INS_17_ClassicAlgPolicyENS_16reverse_iteratorIPN7atcoder13static_modintILi754974721ELPv0EEEEES8_S8_EENS_4pairIT0_T2_EESA_T1_SB_, symObjAddr: 0x6FCC, symBinAddr: 0x100007CE8, symSize: 0x64 }
  - { offsetInCU: 0x128EE, offset: 0x128EE, size: 0x8, addend: 0x0, symName: __ZNSt3__123__dispatch_copy_or_moveB8ue170006INS_17_ClassicAlgPolicyENS_11__move_loopIS1_EENS_14__move_trivialENS_16reverse_iteratorIPN7atcoder13static_modintILi754974721ELPv0EEEEESB_SB_EENS_4pairIT2_T4_EESD_T3_SE_, symObjAddr: 0x7030, symBinAddr: 0x100007D4C, symSize: 0x64 }
  - { offsetInCU: 0x1296C, offset: 0x1296C, size: 0x8, addend: 0x0, symName: __ZNSt3__121__unwrap_and_dispatchB8ue170006INS_10__overloadINS_11__move_loopINS_17_ClassicAlgPolicyEEENS_14__move_trivialEEENS_16reverse_iteratorIPN7atcoder13static_modintILi754974721ELPv0EEEEESD_SD_Li0EEENS_4pairIT0_T2_EESF_T1_SG_, symObjAddr: 0x7094, symBinAddr: 0x100007DB0, symSize: 0x12C }
  - { offsetInCU: 0x129FC, offset: 0x129FC, size: 0x8, addend: 0x0, symName: __ZNSt3__114__unwrap_rangeB8ue170006INS_16reverse_iteratorIPN7atcoder13static_modintILi754974721ELPv0EEEEES7_EENS_4pairIT0_S9_EET_SB_, symObjAddr: 0x71C0, symBinAddr: 0x100007EDC, symSize: 0x84 }
  - { offsetInCU: 0x12C34, offset: 0x12C34, size: 0x8, addend: 0x0, symName: __ZNSt3__113__unwrap_iterB8ue170006INS_16reverse_iteratorIPN7atcoder13static_modintILi754974721ELPv0EEEEENS_18__unwrap_iter_implIS7_Lb0EEELi0EEEDTclsrT0_8__unwrapclsr3stdE7declvalIT_EEEESB_, symObjAddr: 0x72E4, symBinAddr: 0x100008000, symSize: 0x44 }
  - { offsetInCU: 0x12C78, offset: 0x12C78, size: 0x8, addend: 0x0, symName: __ZNSt3__19make_pairB8ue170006INS_16reverse_iteratorIPN7atcoder13static_modintILi754974721ELPv0EEEEES7_EENS_4pairINS_18__unwrap_ref_decayIT_E4typeENS9_IT0_E4typeEEEOSA_OSD_, symObjAddr: 0x7328, symBinAddr: 0x100008044, symSize: 0x38 }
  - { offsetInCU: 0x12CC7, offset: 0x12CC7, size: 0x8, addend: 0x0, symName: __ZNSt3__114__rewrap_rangeB8ue170006INS_16reverse_iteratorIPN7atcoder13static_modintILi754974721ELPv0EEEEES7_EET_S8_T0_, symObjAddr: 0x7360, symBinAddr: 0x10000807C, symSize: 0x5C }
  - { offsetInCU: 0x12D13, offset: 0x12D13, size: 0x8, addend: 0x0, symName: __ZNSt3__113__rewrap_iterB8ue170006INS_16reverse_iteratorIPN7atcoder13static_modintILi754974721ELPv0EEEEES7_NS_18__unwrap_iter_implIS7_Lb0EEEEET_SA_T0_, symObjAddr: 0x73BC, symBinAddr: 0x1000080D8, symSize: 0x74 }
  - { offsetInCU: 0x12D68, offset: 0x12D68, size: 0x8, addend: 0x0, symName: __ZNSt3__1neB8ue170006IPN7atcoder13static_modintILi754974721ELPv0EEES5_EEbRKNS_16reverse_iteratorIT_EERKNS6_IT0_EE, symObjAddr: 0x7430, symBinAddr: 0x10000814C, symSize: 0x48 }
  - { offsetInCU: 0x12FCD, offset: 0x12FCD, size: 0x8, addend: 0x0, symName: __ZNSt3__112__to_addressB8ue170006IxEEPT_S2_, symObjAddr: 0x8068, symBinAddr: 0x100008D84, symSize: 0x14 }
  - { offsetInCU: 0x13002, offset: 0x13002, size: 0x8, addend: 0x0, symName: __ZNSt3__122__make_exception_guardB8ue170006INS_6vectorIN7atcoder13static_modintILi167772161ELPv0EEENS_9allocatorIS5_EEE16__destroy_vectorEEENS_28__exception_guard_exceptionsIT_EESB_, symObjAddr: 0x8748, symBinAddr: 0x100009464, symSize: 0x40 }
  - { offsetInCU: 0x13037, offset: 0x13037, size: 0x8, addend: 0x0, symName: __ZNSt3__119__allocate_at_leastB8ue170006INS_9allocatorIN7atcoder13static_modintILi167772161ELPv0EEEEEEENS_19__allocation_resultINS_16allocator_traitsIT_E7pointerEEERS9_m, symObjAddr: 0x8B34, symBinAddr: 0x100009850, symSize: 0x40 }
  - { offsetInCU: 0x1307A, offset: 0x1307A, size: 0x8, addend: 0x0, symName: __ZNSt3__112__to_addressB8ue170006IN7atcoder13static_modintILi167772161ELPv0EEEEEPT_S6_, symObjAddr: 0x8E58, symBinAddr: 0x100009B74, symSize: 0x14 }
  - { offsetInCU: 0x130AF, offset: 0x130AF, size: 0x8, addend: 0x0, symName: __ZNSt3__14swapB8ue170006IN7atcoder13static_modintILi167772161ELPv0EEENS_9allocatorIS4_EEEEvRNS_6vectorIT_T0_EESB_, symObjAddr: 0x941C, symBinAddr: 0x10000A138, symSize: 0x2C }
  - { offsetInCU: 0x130FA, offset: 0x130FA, size: 0x8, addend: 0x0, symName: __ZNSt3__14swapB8ue170006IPN7atcoder13static_modintILi167772161ELPv0EEEEENS_9enable_ifIXaasr21is_move_constructibleIT_EE5valuesr18is_move_assignableIS7_EE5valueEvE4typeERS7_SA_, symObjAddr: 0xA1F4, symBinAddr: 0x10000AF10, symSize: 0x3C }
  - { offsetInCU: 0x1314C, offset: 0x1314C, size: 0x8, addend: 0x0, symName: __ZNSt3__116__swap_allocatorB8ue170006INS_9allocatorIN7atcoder13static_modintILi167772161ELPv0EEEEEEEvRT_S8_NS_17integral_constantIbLb0EEE, symObjAddr: 0xA230, symBinAddr: 0x10000AF4C, symSize: 0x14 }
  - { offsetInCU: 0x1318C, offset: 0x1318C, size: 0x8, addend: 0x0, symName: __ZNSt3__142__uninitialized_allocator_move_if_noexceptB8ue170006INS_9allocatorIN7atcoder13static_modintILi167772161ELPv0EEEEENS_16reverse_iteratorIPS5_EES9_S5_vEET1_RT_T0_SD_SA_, symObjAddr: 0xA978, symBinAddr: 0x10000B694, symSize: 0x78 }
  - { offsetInCU: 0x13209, offset: 0x13209, size: 0x8, addend: 0x0, symName: __ZNSt3__14moveB8ue170006INS_16reverse_iteratorIPN7atcoder13static_modintILi167772161ELPv0EEEEES7_EET0_T_S9_S8_, symObjAddr: 0xAA3C, symBinAddr: 0x10000B758, symSize: 0x78 }
  - { offsetInCU: 0x13263, offset: 0x13263, size: 0x8, addend: 0x0, symName: __ZNSt3__16__moveB8ue170006INS_17_ClassicAlgPolicyENS_16reverse_iteratorIPN7atcoder13static_modintILi167772161ELPv0EEEEES8_S8_EENS_4pairIT0_T2_EESA_T1_SB_, symObjAddr: 0xAAB4, symBinAddr: 0x10000B7D0, symSize: 0x64 }
  - { offsetInCU: 0x132CF, offset: 0x132CF, size: 0x8, addend: 0x0, symName: __ZNSt3__123__dispatch_copy_or_moveB8ue170006INS_17_ClassicAlgPolicyENS_11__move_loopIS1_EENS_14__move_trivialENS_16reverse_iteratorIPN7atcoder13static_modintILi167772161ELPv0EEEEESB_SB_EENS_4pairIT2_T4_EESD_T3_SE_, symObjAddr: 0xAB18, symBinAddr: 0x10000B834, symSize: 0x64 }
  - { offsetInCU: 0x1334D, offset: 0x1334D, size: 0x8, addend: 0x0, symName: __ZNSt3__121__unwrap_and_dispatchB8ue170006INS_10__overloadINS_11__move_loopINS_17_ClassicAlgPolicyEEENS_14__move_trivialEEENS_16reverse_iteratorIPN7atcoder13static_modintILi167772161ELPv0EEEEESD_SD_Li0EEENS_4pairIT0_T2_EESF_T1_SG_, symObjAddr: 0xAB7C, symBinAddr: 0x10000B898, symSize: 0x12C }
  - { offsetInCU: 0x133DD, offset: 0x133DD, size: 0x8, addend: 0x0, symName: __ZNSt3__114__unwrap_rangeB8ue170006INS_16reverse_iteratorIPN7atcoder13static_modintILi167772161ELPv0EEEEES7_EENS_4pairIT0_S9_EET_SB_, symObjAddr: 0xACA8, symBinAddr: 0x10000B9C4, symSize: 0x84 }
  - { offsetInCU: 0x134FD, offset: 0x134FD, size: 0x8, addend: 0x0, symName: __ZNSt3__113__unwrap_iterB8ue170006INS_16reverse_iteratorIPN7atcoder13static_modintILi167772161ELPv0EEEEENS_18__unwrap_iter_implIS7_Lb0EEELi0EEEDTclsrT0_8__unwrapclsr3stdE7declvalIT_EEEESB_, symObjAddr: 0xADCC, symBinAddr: 0x10000BAE8, symSize: 0x44 }
  - { offsetInCU: 0x13541, offset: 0x13541, size: 0x8, addend: 0x0, symName: __ZNSt3__19make_pairB8ue170006INS_16reverse_iteratorIPN7atcoder13static_modintILi167772161ELPv0EEEEES7_EENS_4pairINS_18__unwrap_ref_decayIT_E4typeENS9_IT0_E4typeEEEOSA_OSD_, symObjAddr: 0xAE10, symBinAddr: 0x10000BB2C, symSize: 0x38 }
  - { offsetInCU: 0x13590, offset: 0x13590, size: 0x8, addend: 0x0, symName: __ZNSt3__114__rewrap_rangeB8ue170006INS_16reverse_iteratorIPN7atcoder13static_modintILi167772161ELPv0EEEEES7_EET_S8_T0_, symObjAddr: 0xAE48, symBinAddr: 0x10000BB64, symSize: 0x5C }
  - { offsetInCU: 0x135DC, offset: 0x135DC, size: 0x8, addend: 0x0, symName: __ZNSt3__113__rewrap_iterB8ue170006INS_16reverse_iteratorIPN7atcoder13static_modintILi167772161ELPv0EEEEES7_NS_18__unwrap_iter_implIS7_Lb0EEEEET_SA_T0_, symObjAddr: 0xAEA4, symBinAddr: 0x10000BBC0, symSize: 0x74 }
  - { offsetInCU: 0x13631, offset: 0x13631, size: 0x8, addend: 0x0, symName: __ZNSt3__1neB8ue170006IPN7atcoder13static_modintILi167772161ELPv0EEES5_EEbRKNS_16reverse_iteratorIT_EERKNS6_IT0_EE, symObjAddr: 0xAF18, symBinAddr: 0x10000BC34, symSize: 0x48 }
  - { offsetInCU: 0x136E9, offset: 0x136E9, size: 0x8, addend: 0x0, symName: __ZNSt3__122__make_exception_guardB8ue170006INS_6vectorIN7atcoder13static_modintILi469762049ELPv0EEENS_9allocatorIS5_EEE16__destroy_vectorEEENS_28__exception_guard_exceptionsIT_EESB_, symObjAddr: 0xBD8C, symBinAddr: 0x10000CAA8, symSize: 0x40 }
  - { offsetInCU: 0x1371E, offset: 0x1371E, size: 0x8, addend: 0x0, symName: __ZNSt3__119__allocate_at_leastB8ue170006INS_9allocatorIN7atcoder13static_modintILi469762049ELPv0EEEEEEENS_19__allocation_resultINS_16allocator_traitsIT_E7pointerEEERS9_m, symObjAddr: 0xC178, symBinAddr: 0x10000CE94, symSize: 0x40 }
  - { offsetInCU: 0x13761, offset: 0x13761, size: 0x8, addend: 0x0, symName: __ZNSt3__112__to_addressB8ue170006IN7atcoder13static_modintILi469762049ELPv0EEEEEPT_S6_, symObjAddr: 0xC49C, symBinAddr: 0x10000D1B8, symSize: 0x14 }
  - { offsetInCU: 0x13796, offset: 0x13796, size: 0x8, addend: 0x0, symName: __ZNSt3__14swapB8ue170006IN7atcoder13static_modintILi469762049ELPv0EEENS_9allocatorIS4_EEEEvRNS_6vectorIT_T0_EESB_, symObjAddr: 0xCA60, symBinAddr: 0x10000D77C, symSize: 0x2C }
  - { offsetInCU: 0x137E1, offset: 0x137E1, size: 0x8, addend: 0x0, symName: __ZNSt3__14swapB8ue170006IPN7atcoder13static_modintILi469762049ELPv0EEEEENS_9enable_ifIXaasr21is_move_constructibleIT_EE5valuesr18is_move_assignableIS7_EE5valueEvE4typeERS7_SA_, symObjAddr: 0xD838, symBinAddr: 0x10000E554, symSize: 0x3C }
  - { offsetInCU: 0x13833, offset: 0x13833, size: 0x8, addend: 0x0, symName: __ZNSt3__116__swap_allocatorB8ue170006INS_9allocatorIN7atcoder13static_modintILi469762049ELPv0EEEEEEEvRT_S8_NS_17integral_constantIbLb0EEE, symObjAddr: 0xD874, symBinAddr: 0x10000E590, symSize: 0x14 }
  - { offsetInCU: 0x13873, offset: 0x13873, size: 0x8, addend: 0x0, symName: __ZNSt3__142__uninitialized_allocator_move_if_noexceptB8ue170006INS_9allocatorIN7atcoder13static_modintILi469762049ELPv0EEEEENS_16reverse_iteratorIPS5_EES9_S5_vEET1_RT_T0_SD_SA_, symObjAddr: 0xDFBC, symBinAddr: 0x10000ECD8, symSize: 0x78 }
  - { offsetInCU: 0x138F0, offset: 0x138F0, size: 0x8, addend: 0x0, symName: __ZNSt3__14moveB8ue170006INS_16reverse_iteratorIPN7atcoder13static_modintILi469762049ELPv0EEEEES7_EET0_T_S9_S8_, symObjAddr: 0xE080, symBinAddr: 0x10000ED9C, symSize: 0x78 }
  - { offsetInCU: 0x1394A, offset: 0x1394A, size: 0x8, addend: 0x0, symName: __ZNSt3__16__moveB8ue170006INS_17_ClassicAlgPolicyENS_16reverse_iteratorIPN7atcoder13static_modintILi469762049ELPv0EEEEES8_S8_EENS_4pairIT0_T2_EESA_T1_SB_, symObjAddr: 0xE0F8, symBinAddr: 0x10000EE14, symSize: 0x64 }
  - { offsetInCU: 0x139B6, offset: 0x139B6, size: 0x8, addend: 0x0, symName: __ZNSt3__123__dispatch_copy_or_moveB8ue170006INS_17_ClassicAlgPolicyENS_11__move_loopIS1_EENS_14__move_trivialENS_16reverse_iteratorIPN7atcoder13static_modintILi469762049ELPv0EEEEESB_SB_EENS_4pairIT2_T4_EESD_T3_SE_, symObjAddr: 0xE15C, symBinAddr: 0x10000EE78, symSize: 0x64 }
  - { offsetInCU: 0x13A34, offset: 0x13A34, size: 0x8, addend: 0x0, symName: __ZNSt3__121__unwrap_and_dispatchB8ue170006INS_10__overloadINS_11__move_loopINS_17_ClassicAlgPolicyEEENS_14__move_trivialEEENS_16reverse_iteratorIPN7atcoder13static_modintILi469762049ELPv0EEEEESD_SD_Li0EEENS_4pairIT0_T2_EESF_T1_SG_, symObjAddr: 0xE1C0, symBinAddr: 0x10000EEDC, symSize: 0x12C }
  - { offsetInCU: 0x13AC4, offset: 0x13AC4, size: 0x8, addend: 0x0, symName: __ZNSt3__114__unwrap_rangeB8ue170006INS_16reverse_iteratorIPN7atcoder13static_modintILi469762049ELPv0EEEEES7_EENS_4pairIT0_S9_EET_SB_, symObjAddr: 0xE2EC, symBinAddr: 0x10000F008, symSize: 0x84 }
  - { offsetInCU: 0x13BE4, offset: 0x13BE4, size: 0x8, addend: 0x0, symName: __ZNSt3__113__unwrap_iterB8ue170006INS_16reverse_iteratorIPN7atcoder13static_modintILi469762049ELPv0EEEEENS_18__unwrap_iter_implIS7_Lb0EEELi0EEEDTclsrT0_8__unwrapclsr3stdE7declvalIT_EEEESB_, symObjAddr: 0xE410, symBinAddr: 0x10000F12C, symSize: 0x44 }
  - { offsetInCU: 0x13C28, offset: 0x13C28, size: 0x8, addend: 0x0, symName: __ZNSt3__19make_pairB8ue170006INS_16reverse_iteratorIPN7atcoder13static_modintILi469762049ELPv0EEEEES7_EENS_4pairINS_18__unwrap_ref_decayIT_E4typeENS9_IT0_E4typeEEEOSA_OSD_, symObjAddr: 0xE454, symBinAddr: 0x10000F170, symSize: 0x38 }
  - { offsetInCU: 0x13C77, offset: 0x13C77, size: 0x8, addend: 0x0, symName: __ZNSt3__114__rewrap_rangeB8ue170006INS_16reverse_iteratorIPN7atcoder13static_modintILi469762049ELPv0EEEEES7_EET_S8_T0_, symObjAddr: 0xE48C, symBinAddr: 0x10000F1A8, symSize: 0x5C }
  - { offsetInCU: 0x13CC3, offset: 0x13CC3, size: 0x8, addend: 0x0, symName: __ZNSt3__113__rewrap_iterB8ue170006INS_16reverse_iteratorIPN7atcoder13static_modintILi469762049ELPv0EEEEES7_NS_18__unwrap_iter_implIS7_Lb0EEEEET_SA_T0_, symObjAddr: 0xE4E8, symBinAddr: 0x10000F204, symSize: 0x74 }
  - { offsetInCU: 0x13D18, offset: 0x13D18, size: 0x8, addend: 0x0, symName: __ZNSt3__1neB8ue170006IPN7atcoder13static_modintILi469762049ELPv0EEES5_EEbRKNS_16reverse_iteratorIT_EERKNS6_IT0_EE, symObjAddr: 0xE55C, symBinAddr: 0x10000F278, symSize: 0x48 }
  - { offsetInCU: 0x13DD0, offset: 0x13DD0, size: 0x8, addend: 0x0, symName: __ZNSt3__122__make_exception_guardB8ue170006INS_6vectorIxNS_9allocatorIxEEE16__destroy_vectorEEENS_28__exception_guard_exceptionsIT_EES7_, symObjAddr: 0xEF0C, symBinAddr: 0x10000FC28, symSize: 0x40 }
  - { offsetInCU: 0x13E05, offset: 0x13E05, size: 0x8, addend: 0x0, symName: __ZNSt3__119__allocate_at_leastB8ue170006INS_9allocatorIxEEEENS_19__allocation_resultINS_16allocator_traitsIT_E7pointerEEERS5_m, symObjAddr: 0xF1DC, symBinAddr: 0x10000FEF8, symSize: 0x40 }
  - { offsetInCU: 0x13E48, offset: 0x13E48, size: 0x8, addend: 0x0, symName: __ZNSt3__112__to_addressB8ue170006IiEEPT_S2_, symObjAddr: 0xFA2C, symBinAddr: 0x100010748, symSize: 0x14 }
  - { offsetInCU: 0x13E7D, offset: 0x13E7D, size: 0x8, addend: 0x0, symName: __ZNSt3__122__make_exception_guardB8ue170006INS_6vectorIiNS_9allocatorIiEEE16__destroy_vectorEEENS_28__exception_guard_exceptionsIT_EES7_, symObjAddr: 0xFC84, symBinAddr: 0x1000109A0, symSize: 0x40 }
  - { offsetInCU: 0x13EB2, offset: 0x13EB2, size: 0x8, addend: 0x0, symName: __ZNSt3__119__allocate_at_leastB8ue170006INS_9allocatorIiEEEENS_19__allocation_resultINS_16allocator_traitsIT_E7pointerEEERS5_m, symObjAddr: 0x1001C, symBinAddr: 0x100010D38, symSize: 0x40 }
  - { offsetInCU: 0x13EF5, offset: 0x13EF5, size: 0x8, addend: 0x0, symName: __ZNSt3__13getB8ue170006ILm0EJRxS1_EEERNS_13tuple_elementIXT_ENS_5tupleIJDpT0_EEEE4typeERS6_, symObjAddr: 0x103B4, symBinAddr: 0x1000110D0, symSize: 0x24 }
  - { offsetInCU: 0x13F3C, offset: 0x13F3C, size: 0x8, addend: 0x0, symName: __ZNSt3__13getB8ue170006ILm1EJRxS1_EEERNS_13tuple_elementIXT_ENS_5tupleIJDpT0_EEEE4typeERS6_, symObjAddr: 0x103D8, symBinAddr: 0x1000110F4, symSize: 0x28 }
  - { offsetInCU: 0x13F83, offset: 0x13F83, size: 0x8, addend: 0x0, symName: __ZNSt3__130__uninitialized_allocator_copyB8ue170006INS_9allocatorIiEEPiS3_S3_EET2_RT_T0_T1_S4_, symObjAddr: 0x10734, symBinAddr: 0x100011450, symSize: 0x80 }
  - { offsetInCU: 0x14020, offset: 0x14020, size: 0x8, addend: 0x0, symName: __ZNSt3__114__unwrap_rangeB8ue170006IPiS1_EENS_4pairIT0_S3_EET_S5_, symObjAddr: 0x107B4, symBinAddr: 0x1000114D0, symSize: 0x60 }
  - { offsetInCU: 0x1406C, offset: 0x1406C, size: 0x8, addend: 0x0, symName: __ZNSt3__135__uninitialized_allocator_copy_implB8ue170006INS_9allocatorIiEEiiiLPv0EEEPT2_RT_PT0_S9_S5_, symObjAddr: 0x10814, symBinAddr: 0x100011530, symSize: 0x38 }
  - { offsetInCU: 0x140ED, offset: 0x140ED, size: 0x8, addend: 0x0, symName: __ZNSt3__113__unwrap_iterB8ue170006IPiNS_18__unwrap_iter_implIS1_Lb1EEELi0EEEDTclsrT0_8__unwrapclsr3stdE7declvalIT_EEEES5_, symObjAddr: 0x1084C, symBinAddr: 0x100011568, symSize: 0x24 }
  - { offsetInCU: 0x14131, offset: 0x14131, size: 0x8, addend: 0x0, symName: __ZNSt3__113__rewrap_iterB8ue170006IPiS1_NS_18__unwrap_iter_implIS1_Lb1EEEEET_S4_T0_, symObjAddr: 0x10870, symBinAddr: 0x10001158C, symSize: 0x3C }
  - { offsetInCU: 0x14186, offset: 0x14186, size: 0x8, addend: 0x0, symName: __ZNSt3__19make_pairB8ue170006IPiS1_EENS_4pairINS_18__unwrap_ref_decayIT_E4typeENS3_IT0_E4typeEEEOS4_OS7_, symObjAddr: 0x108AC, symBinAddr: 0x1000115C8, symSize: 0x38 }
  - { offsetInCU: 0x142D8, offset: 0x142D8, size: 0x8, addend: 0x0, symName: __ZNSt3__14copyB8ue170006IPiS1_EET0_T_S3_S2_, symObjAddr: 0x10954, symBinAddr: 0x100011670, symSize: 0x40 }
  - { offsetInCU: 0x14332, offset: 0x14332, size: 0x8, addend: 0x0, symName: __ZNSt3__16__copyB8ue170006INS_17_ClassicAlgPolicyEPiS2_S2_EENS_4pairIT0_T2_EES4_T1_S5_, symObjAddr: 0x10994, symBinAddr: 0x1000116B0, symSize: 0x44 }
  - { offsetInCU: 0x1439E, offset: 0x1439E, size: 0x8, addend: 0x0, symName: __ZNSt3__123__dispatch_copy_or_moveB8ue170006INS_17_ClassicAlgPolicyENS_11__copy_loopIS1_EENS_14__copy_trivialEPiS5_S5_EENS_4pairIT2_T4_EES7_T3_S8_, symObjAddr: 0x109D8, symBinAddr: 0x1000116F4, symSize: 0x44 }
  - { offsetInCU: 0x1441C, offset: 0x1441C, size: 0x8, addend: 0x0, symName: __ZNSt3__121__unwrap_and_dispatchB8ue170006INS_10__overloadINS_11__copy_loopINS_17_ClassicAlgPolicyEEENS_14__copy_trivialEEEPiS7_S7_Li0EEENS_4pairIT0_T2_EES9_T1_SA_, symObjAddr: 0x10A1C, symBinAddr: 0x100011738, symSize: 0xB4 }
  - { offsetInCU: 0x1452C, offset: 0x1452C, size: 0x8, addend: 0x0, symName: __ZNSt3__114__rewrap_rangeB8ue170006IPiS1_EET_S2_T0_, symObjAddr: 0x10B18, symBinAddr: 0x100011834, symSize: 0x2C }
  - { offsetInCU: 0x14578, offset: 0x14578, size: 0x8, addend: 0x0, symName: __ZNSt3__119__copy_trivial_implB8ue170006IiiEENS_4pairIPT_PT0_EES3_S3_S5_, symObjAddr: 0x10B44, symBinAddr: 0x100011860, symSize: 0x80 }
  - { offsetInCU: 0x145E0, offset: 0x145E0, size: 0x8, addend: 0x0, symName: __ZNSt3__119__constexpr_memmoveB8ue170006IiiLi0EEEPT_S2_PT0_NS_15__element_countE, symObjAddr: 0x10BC4, symBinAddr: 0x1000118E0, symSize: 0x64 }
  - { offsetInCU: 0x1464E, offset: 0x1464E, size: 0x8, addend: 0x0, symName: __ZNSt3__19make_pairB8ue170006IRPiS1_EENS_4pairINS_18__unwrap_ref_decayIT_E4typeENS4_IT0_E4typeEEEOS5_OS8_, symObjAddr: 0x10C28, symBinAddr: 0x100011944, symSize: 0x38 }
  - { offsetInCU: 0x146F0, offset: 0x146F0, size: 0x8, addend: 0x0, symName: __ZNSt3__1neB8ue170006IPiEEbRKNS_11__wrap_iterIT_EES6_, symObjAddr: 0x10D44, symBinAddr: 0x100011A60, symSize: 0x34 }
  - { offsetInCU: 0x14733, offset: 0x14733, size: 0x8, addend: 0x0, symName: __ZNSt3__1eqB8ue170006IPiEEbRKNS_11__wrap_iterIT_EES6_, symObjAddr: 0x10DB0, symBinAddr: 0x100011ACC, symSize: 0x48 }
  - { offsetInCU: 0x14776, offset: 0x14776, size: 0x8, addend: 0x0, symName: '__ZNSt3__111__sort_implB8ue170006INS_17_ClassicAlgPolicyENS_11__wrap_iterIPiEEZN7atcoder8internal8sa_naiveERKNS_6vectorIiNS_9allocatorIiEEEEE3$_0EEvT0_SE_RT1_', symObjAddr: 0x10E10, symBinAddr: 0x100011B2C, symSize: 0xA8 }
  - { offsetInCU: 0x147DA, offset: 0x147DA, size: 0x8, addend: 0x0, symName: __ZNSt3__123__debug_randomize_rangeB8ue170006INS_17_ClassicAlgPolicyENS_11__wrap_iterIPiEES4_EEvT0_T1_, symObjAddr: 0x10EB8, symBinAddr: 0x100011BD4, symSize: 0x14 }
  - { offsetInCU: 0x1482A, offset: 0x1482A, size: 0x8, addend: 0x0, symName: '__ZNSt3__115__sort_dispatchB8ue170006INS_17_ClassicAlgPolicyEPiZN7atcoder8internal8sa_naiveERKNS_6vectorIiNS_9allocatorIiEEEEE3$_0EEvT0_SC_RT1_', symObjAddr: 0x10ECC, symBinAddr: 0x100011BE8, symSize: 0x64 }
  - { offsetInCU: 0x148A8, offset: 0x148A8, size: 0x8, addend: 0x0, symName: __ZNSt3__113__unwrap_iterB8ue170006INS_11__wrap_iterIPiEENS_18__unwrap_iter_implIS3_Lb1EEELi0EEEDTclsrT0_8__unwrapclsr3stdE7declvalIT_EEEES7_, symObjAddr: 0x10F30, symBinAddr: 0x100011C4C, symSize: 0x2C }
  - { offsetInCU: 0x148ED, offset: 0x148ED, size: 0x8, addend: 0x0, symName: '__ZNSt3__135__check_strict_weak_ordering_sortedB8ue170006IPiZN7atcoder8internal8sa_naiveERKNS_6vectorIiNS_9allocatorIiEEEEE3$_0EEvT_SB_RT0_', symObjAddr: 0x10F5C, symBinAddr: 0x100011C78, symSize: 0x18 }
  - { offsetInCU: 0x14943, offset: 0x14943, size: 0x8, addend: 0x0, symName: __ZNSt3__17__log2iB8ue170006IlEET_S1_, symObjAddr: 0x10F74, symBinAddr: 0x100011C90, symSize: 0x54 }
  - { offsetInCU: 0x1497A, offset: 0x1497A, size: 0x8, addend: 0x0, symName: __ZNSt3__112__libcpp_clzB8ue170006Em, symObjAddr: 0x11420, symBinAddr: 0x10001213C, symSize: 0x1C }
  - { offsetInCU: 0x149A6, offset: 0x149A6, size: 0x8, addend: 0x0, symName: '__ZNSt3__124__sort3_maybe_branchlessB8ue170006INS_17_ClassicAlgPolicyERZN7atcoder8internal8sa_naiveERKNS_6vectorIiNS_9allocatorIiEEEEE3$_0PiEENS_9enable_ifIXntsr21__use_branchless_sortIT0_T1_EE5valueEvE4typeESF_SF_SF_SE_', symObjAddr: 0x115F4, symBinAddr: 0x100012310, symSize: 0x3C }
  - { offsetInCU: 0x14A17, offset: 0x14A17, size: 0x8, addend: 0x0, symName: '__ZNSt3__124__sort4_maybe_branchlessB8ue170006INS_17_ClassicAlgPolicyERZN7atcoder8internal8sa_naiveERKNS_6vectorIiNS_9allocatorIiEEEEE3$_0PiEENS_9enable_ifIXntsr21__use_branchless_sortIT0_T1_EE5valueEvE4typeESF_SF_SF_SF_SE_', symObjAddr: 0x11630, symBinAddr: 0x10001234C, symSize: 0x44 }
  - { offsetInCU: 0x14A96, offset: 0x14A96, size: 0x8, addend: 0x0, symName: '__ZNSt3__124__sort5_maybe_branchlessB8ue170006INS_17_ClassicAlgPolicyERZN7atcoder8internal8sa_naiveERKNS_6vectorIiNS_9allocatorIiEEEEE3$_0PiEENS_9enable_ifIXntsr21__use_branchless_sortIT0_T1_EE5valueEvE4typeESF_SF_SF_SF_SF_SE_', symObjAddr: 0x11674, symBinAddr: 0x100012390, symSize: 0x4C }
  - { offsetInCU: 0x14B23, offset: 0x14B23, size: 0x8, addend: 0x0, symName: '__ZNSt3__116__insertion_sortB8ue170006INS_17_ClassicAlgPolicyERZN7atcoder8internal8sa_naiveERKNS_6vectorIiNS_9allocatorIiEEEEE3$_0PiEEvT1_SD_T0_', symObjAddr: 0x116C0, symBinAddr: 0x1000123DC, symSize: 0x15C }
  - { offsetInCU: 0x14BE6, offset: 0x14BE6, size: 0x8, addend: 0x0, symName: '__ZNSt3__114__partial_sortB8ue170006INS_17_ClassicAlgPolicyERZN7atcoder8internal8sa_naiveERKNS_6vectorIiNS_9allocatorIiEEEEE3$_0PiSC_EET1_SD_SD_T2_RT0_', symObjAddr: 0x11948, symBinAddr: 0x100012664, symSize: 0x94 }
  - { offsetInCU: 0x14C6E, offset: 0x14C6E, size: 0x8, addend: 0x0, symName: '__ZNSt3__17__sort3B8ue170006INS_17_ClassicAlgPolicyERZN7atcoder8internal8sa_naiveERKNS_6vectorIiNS_9allocatorIiEEEEE3$_0PiEEjT1_SD_SD_T0_', symObjAddr: 0x119DC, symBinAddr: 0x1000126F8, symSize: 0x16C }
  - { offsetInCU: 0x14CED, offset: 0x14CED, size: 0x8, addend: 0x0, symName: __ZNSt3__19iter_swapB8ue170006IPiS1_EEvT_T0_, symObjAddr: 0x12650, symBinAddr: 0x10001336C, symSize: 0x2C }
  - { offsetInCU: 0x14D35, offset: 0x14D35, size: 0x8, addend: 0x0, symName: '__ZNSt3__17__sort4B8ue170006INS_17_ClassicAlgPolicyERZN7atcoder8internal8sa_naiveERKNS_6vectorIiNS_9allocatorIiEEEEE3$_0PiEEvT1_SD_SD_SD_T0_', symObjAddr: 0x1267C, symBinAddr: 0x100013398, symSize: 0xD0 }
  - { offsetInCU: 0x14DB0, offset: 0x14DB0, size: 0x8, addend: 0x0, symName: '__ZNSt3__17__sort5B8ue170006INS_17_ClassicAlgPolicyERZN7atcoder8internal8sa_naiveERKNS_6vectorIiNS_9allocatorIiEEEEE3$_0PiEEvT1_SD_SD_SD_SD_T0_', symObjAddr: 0x1274C, symBinAddr: 0x100013468, symSize: 0x108 }
  - { offsetInCU: 0x14E5E, offset: 0x14E5E, size: 0x8, addend: 0x0, symName: __ZNSt3__123__debug_randomize_rangeB8ue170006INS_17_ClassicAlgPolicyEPiS2_EEvT0_T1_, symObjAddr: 0x12898, symBinAddr: 0x1000135B4, symSize: 0x14 }
  - { offsetInCU: 0x14EAE, offset: 0x14EAE, size: 0x8, addend: 0x0, symName: '__ZNSt3__119__partial_sort_implB8ue170006INS_17_ClassicAlgPolicyERZN7atcoder8internal8sa_naiveERKNS_6vectorIiNS_9allocatorIiEEEEE3$_0PiSC_EET1_SD_SD_T2_OT0_', symObjAddr: 0x128AC, symBinAddr: 0x1000135C8, symSize: 0x118 }
  - { offsetInCU: 0x14F44, offset: 0x14F44, size: 0x8, addend: 0x0, symName: '__ZNSt3__111__make_heapB8ue170006INS_17_ClassicAlgPolicyERZN7atcoder8internal8sa_naiveERKNS_6vectorIiNS_9allocatorIiEEEEE3$_0PiEEvT1_SD_OT0_', symObjAddr: 0x129C4, symBinAddr: 0x1000136E0, symSize: 0xB8 }
  - { offsetInCU: 0x14FE6, offset: 0x14FE6, size: 0x8, addend: 0x0, symName: '__ZNSt3__111__sort_heapB8ue170006INS_17_ClassicAlgPolicyERZN7atcoder8internal8sa_naiveERKNS_6vectorIiNS_9allocatorIiEEEEE3$_0PiEEvT1_SD_OT0_', symObjAddr: 0x12C9C, symBinAddr: 0x1000139B8, symSize: 0xA8 }
  - { offsetInCU: 0x15088, offset: 0x15088, size: 0x8, addend: 0x0, symName: '__ZNSt3__110__pop_heapB8ue170006INS_17_ClassicAlgPolicyEZN7atcoder8internal8sa_naiveERKNS_6vectorIiNS_9allocatorIiEEEEE3$_0PiEEvT1_SC_RT0_NS_15iterator_traitsISC_E15difference_typeE', symObjAddr: 0x12D44, symBinAddr: 0x100013A60, symSize: 0xF4 }
  - { offsetInCU: 0x15138, offset: 0x15138, size: 0x8, addend: 0x0, symName: '__ZNSt3__19__sift_upB8ue170006INS_17_ClassicAlgPolicyERZN7atcoder8internal8sa_naiveERKNS_6vectorIiNS_9allocatorIiEEEEE3$_0PiEEvT1_SD_OT0_NS_15iterator_traitsISD_E15difference_typeE', symObjAddr: 0x12F3C, symBinAddr: 0x100013C58, symSize: 0x128 }
  - { offsetInCU: 0x151E8, offset: 0x151E8, size: 0x8, addend: 0x0, symName: '__ZNSt3__122__populate_left_bitsetB8ue170006IRZN7atcoder8internal8sa_naiveERKNS_6vectorIiNS_9allocatorIiEEEEE3$_0PiiEEvT0_T_RT1_Ry', symObjAddr: 0x13064, symBinAddr: 0x100013D80, symSize: 0xB0 }
  - { offsetInCU: 0x152A3, offset: 0x152A3, size: 0x8, addend: 0x0, symName: '__ZNSt3__123__populate_right_bitsetB8ue170006IRZN7atcoder8internal8sa_naiveERKNS_6vectorIiNS_9allocatorIiEEEEE3$_0PiiEEvT0_T_RT1_Ry', symObjAddr: 0x13114, symBinAddr: 0x100013E30, symSize: 0xA8 }
  - { offsetInCU: 0x1535E, offset: 0x1535E, size: 0x8, addend: 0x0, symName: __ZNSt3__117__swap_bitmap_posB8ue170006INS_17_ClassicAlgPolicyEPiEEvT0_S3_RyS4_, symObjAddr: 0x131BC, symBinAddr: 0x100013ED8, symSize: 0x100 }
  - { offsetInCU: 0x153FF, offset: 0x153FF, size: 0x8, addend: 0x0, symName: '__ZNSt3__133__bitset_partition_partial_blocksB8ue170006INS_17_ClassicAlgPolicyERZN7atcoder8internal8sa_naiveERKNS_6vectorIiNS_9allocatorIiEEEEE3$_0PiiEEvRT1_SE_T0_RT2_RySI_', symObjAddr: 0x132BC, symBinAddr: 0x100013FD8, symSize: 0x2F8 }
  - { offsetInCU: 0x15580, offset: 0x15580, size: 0x8, addend: 0x0, symName: __ZNSt3__19make_pairB8ue170006IRPiRbEENS_4pairINS_18__unwrap_ref_decayIT_E4typeENS5_IT0_E4typeEEEOS6_OS9_, symObjAddr: 0x13794, symBinAddr: 0x1000144B0, symSize: 0x38 }
  - { offsetInCU: 0x155CF, offset: 0x155CF, size: 0x8, addend: 0x0, symName: __ZNSt3__112__libcpp_ctzB8ue170006Ey, symObjAddr: 0x137CC, symBinAddr: 0x1000144E8, symSize: 0x20 }
  - { offsetInCU: 0x155FB, offset: 0x155FB, size: 0x8, addend: 0x0, symName: __ZNSt3__113__libcpp_blsrB8ue170006Ey, symObjAddr: 0x137EC, symBinAddr: 0x100014508, symSize: 0x2C }
  - { offsetInCU: 0x15627, offset: 0x15627, size: 0x8, addend: 0x0, symName: __ZNSt3__112__libcpp_clzB8ue170006Ey, symObjAddr: 0x1384C, symBinAddr: 0x100014568, symSize: 0x1C }
  - { offsetInCU: 0x1577A, offset: 0x1577A, size: 0x8, addend: 0x0, symName: __ZNSt3__112__to_addressB8ue170006INS_11__wrap_iterIPiEEvEEu7__decayIDTclsr19__to_address_helperIT_EE6__callclsr3stdE7declvalIRKS4_EEEEES6_, symObjAddr: 0x13904, symBinAddr: 0x100014620, symSize: 0x24 }
  - { offsetInCU: 0x15856, offset: 0x15856, size: 0x8, addend: 0x0, symName: '__ZNSt3__111__sort_implB8ue170006INS_17_ClassicAlgPolicyENS_11__wrap_iterIPiEEZN7atcoder8internal11sa_doublingERKNS_6vectorIiNS_9allocatorIiEEEEE3$_1EEvT0_SE_RT1_', symObjAddr: 0x13984, symBinAddr: 0x1000146A0, symSize: 0xA8 }
  - { offsetInCU: 0x158B9, offset: 0x158B9, size: 0x8, addend: 0x0, symName: '__ZNSt3__115__sort_dispatchB8ue170006INS_17_ClassicAlgPolicyEPiZN7atcoder8internal11sa_doublingERKNS_6vectorIiNS_9allocatorIiEEEEE3$_1EEvT0_SC_RT1_', symObjAddr: 0x13A2C, symBinAddr: 0x100014748, symSize: 0x64 }
  - { offsetInCU: 0x15938, offset: 0x15938, size: 0x8, addend: 0x0, symName: '__ZNSt3__135__check_strict_weak_ordering_sortedB8ue170006IPiZN7atcoder8internal11sa_doublingERKNS_6vectorIiNS_9allocatorIiEEEEE3$_1EEvT_SB_RT0_', symObjAddr: 0x13A90, symBinAddr: 0x1000147AC, symSize: 0x18 }
  - { offsetInCU: 0x1598E, offset: 0x1598E, size: 0x8, addend: 0x0, symName: '__ZNSt3__124__sort3_maybe_branchlessB8ue170006INS_17_ClassicAlgPolicyERZN7atcoder8internal11sa_doublingERKNS_6vectorIiNS_9allocatorIiEEEEE3$_1PiEENS_9enable_ifIXntsr21__use_branchless_sortIT0_T1_EE5valueEvE4typeESF_SF_SF_SE_', symObjAddr: 0x13F00, symBinAddr: 0x100014C1C, symSize: 0x3C }
  - { offsetInCU: 0x159FF, offset: 0x159FF, size: 0x8, addend: 0x0, symName: '__ZNSt3__124__sort4_maybe_branchlessB8ue170006INS_17_ClassicAlgPolicyERZN7atcoder8internal11sa_doublingERKNS_6vectorIiNS_9allocatorIiEEEEE3$_1PiEENS_9enable_ifIXntsr21__use_branchless_sortIT0_T1_EE5valueEvE4typeESF_SF_SF_SF_SE_', symObjAddr: 0x13F3C, symBinAddr: 0x100014C58, symSize: 0x44 }
  - { offsetInCU: 0x15A7E, offset: 0x15A7E, size: 0x8, addend: 0x0, symName: '__ZNSt3__124__sort5_maybe_branchlessB8ue170006INS_17_ClassicAlgPolicyERZN7atcoder8internal11sa_doublingERKNS_6vectorIiNS_9allocatorIiEEEEE3$_1PiEENS_9enable_ifIXntsr21__use_branchless_sortIT0_T1_EE5valueEvE4typeESF_SF_SF_SF_SF_SE_', symObjAddr: 0x13F80, symBinAddr: 0x100014C9C, symSize: 0x4C }
  - { offsetInCU: 0x15B0B, offset: 0x15B0B, size: 0x8, addend: 0x0, symName: '__ZNSt3__116__insertion_sortB8ue170006INS_17_ClassicAlgPolicyERZN7atcoder8internal11sa_doublingERKNS_6vectorIiNS_9allocatorIiEEEEE3$_1PiEEvT1_SD_T0_', symObjAddr: 0x13FCC, symBinAddr: 0x100014CE8, symSize: 0x15C }
  - { offsetInCU: 0x15BCE, offset: 0x15BCE, size: 0x8, addend: 0x0, symName: '__ZNSt3__114__partial_sortB8ue170006INS_17_ClassicAlgPolicyERZN7atcoder8internal11sa_doublingERKNS_6vectorIiNS_9allocatorIiEEEEE3$_1PiSC_EET1_SD_SD_T2_RT0_', symObjAddr: 0x14254, symBinAddr: 0x100014F70, symSize: 0x94 }
  - { offsetInCU: 0x15C56, offset: 0x15C56, size: 0x8, addend: 0x0, symName: '__ZNSt3__17__sort3B8ue170006INS_17_ClassicAlgPolicyERZN7atcoder8internal11sa_doublingERKNS_6vectorIiNS_9allocatorIiEEEEE3$_1PiEEjT1_SD_SD_T0_', symObjAddr: 0x142E8, symBinAddr: 0x100015004, symSize: 0x16C }
  - { offsetInCU: 0x15CD5, offset: 0x15CD5, size: 0x8, addend: 0x0, symName: '__ZNSt3__17__sort4B8ue170006INS_17_ClassicAlgPolicyERZN7atcoder8internal11sa_doublingERKNS_6vectorIiNS_9allocatorIiEEEEE3$_1PiEEvT1_SD_SD_SD_T0_', symObjAddr: 0x14F04, symBinAddr: 0x100015C20, symSize: 0xD0 }
  - { offsetInCU: 0x15D50, offset: 0x15D50, size: 0x8, addend: 0x0, symName: '__ZNSt3__17__sort5B8ue170006INS_17_ClassicAlgPolicyERZN7atcoder8internal11sa_doublingERKNS_6vectorIiNS_9allocatorIiEEEEE3$_1PiEEvT1_SD_SD_SD_SD_T0_', symObjAddr: 0x14FD4, symBinAddr: 0x100015CF0, symSize: 0x108 }
  - { offsetInCU: 0x15DD9, offset: 0x15DD9, size: 0x8, addend: 0x0, symName: '__ZNSt3__119__partial_sort_implB8ue170006INS_17_ClassicAlgPolicyERZN7atcoder8internal11sa_doublingERKNS_6vectorIiNS_9allocatorIiEEEEE3$_1PiSC_EET1_SD_SD_T2_OT0_', symObjAddr: 0x150DC, symBinAddr: 0x100015DF8, symSize: 0x118 }
  - { offsetInCU: 0x15E6F, offset: 0x15E6F, size: 0x8, addend: 0x0, symName: '__ZNSt3__111__make_heapB8ue170006INS_17_ClassicAlgPolicyERZN7atcoder8internal11sa_doublingERKNS_6vectorIiNS_9allocatorIiEEEEE3$_1PiEEvT1_SD_OT0_', symObjAddr: 0x151F4, symBinAddr: 0x100015F10, symSize: 0xB8 }
  - { offsetInCU: 0x15F11, offset: 0x15F11, size: 0x8, addend: 0x0, symName: '__ZNSt3__111__sort_heapB8ue170006INS_17_ClassicAlgPolicyERZN7atcoder8internal11sa_doublingERKNS_6vectorIiNS_9allocatorIiEEEEE3$_1PiEEvT1_SD_OT0_', symObjAddr: 0x154CC, symBinAddr: 0x1000161E8, symSize: 0xA8 }
  - { offsetInCU: 0x15FB3, offset: 0x15FB3, size: 0x8, addend: 0x0, symName: '__ZNSt3__110__pop_heapB8ue170006INS_17_ClassicAlgPolicyEZN7atcoder8internal11sa_doublingERKNS_6vectorIiNS_9allocatorIiEEEEE3$_1PiEEvT1_SC_RT0_NS_15iterator_traitsISC_E15difference_typeE', symObjAddr: 0x15574, symBinAddr: 0x100016290, symSize: 0xF4 }
  - { offsetInCU: 0x16063, offset: 0x16063, size: 0x8, addend: 0x0, symName: '__ZNSt3__19__sift_upB8ue170006INS_17_ClassicAlgPolicyERZN7atcoder8internal11sa_doublingERKNS_6vectorIiNS_9allocatorIiEEEEE3$_1PiEEvT1_SD_OT0_NS_15iterator_traitsISD_E15difference_typeE', symObjAddr: 0x1576C, symBinAddr: 0x100016488, symSize: 0x128 }
  - { offsetInCU: 0x16113, offset: 0x16113, size: 0x8, addend: 0x0, symName: '__ZNSt3__122__populate_left_bitsetB8ue170006IRZN7atcoder8internal11sa_doublingERKNS_6vectorIiNS_9allocatorIiEEEEE3$_1PiiEEvT0_T_RT1_Ry', symObjAddr: 0x15894, symBinAddr: 0x1000165B0, symSize: 0xB0 }
  - { offsetInCU: 0x161CE, offset: 0x161CE, size: 0x8, addend: 0x0, symName: '__ZNSt3__123__populate_right_bitsetB8ue170006IRZN7atcoder8internal11sa_doublingERKNS_6vectorIiNS_9allocatorIiEEEEE3$_1PiiEEvT0_T_RT1_Ry', symObjAddr: 0x15944, symBinAddr: 0x100016660, symSize: 0xA8 }
  - { offsetInCU: 0x16289, offset: 0x16289, size: 0x8, addend: 0x0, symName: '__ZNSt3__133__bitset_partition_partial_blocksB8ue170006INS_17_ClassicAlgPolicyERZN7atcoder8internal11sa_doublingERKNS_6vectorIiNS_9allocatorIiEEEEE3$_1PiiEEvRT1_SE_T0_RT2_RySI_', symObjAddr: 0x159EC, symBinAddr: 0x100016708, symSize: 0x2F8 }
  - { offsetInCU: 0x1640A, offset: 0x1640A, size: 0x8, addend: 0x0, symName: __ZNSt3__14swapB8ue170006IPiEENS_9enable_ifIXaasr21is_move_constructibleIT_EE5valuesr18is_move_assignableIS3_EE5valueEvE4typeERS3_S6_, symObjAddr: 0x15D68, symBinAddr: 0x100016A84, symSize: 0x3C }
  - { offsetInCU: 0x1645C, offset: 0x1645C, size: 0x8, addend: 0x0, symName: __ZNSt3__116__swap_allocatorB8ue170006INS_9allocatorIiEEEEvRT_S4_NS_17integral_constantIbLb0EEE, symObjAddr: 0x15DA4, symBinAddr: 0x100016AC0, symSize: 0x14 }
  - { offsetInCU: 0x1649C, offset: 0x1649C, size: 0x8, addend: 0x0, symName: __ZNSt3__130__uninitialized_allocator_copyB8ue170006INS_9allocatorIiEEPKiS4_PiEET2_RT_T0_T1_S6_, symObjAddr: 0x168C4, symBinAddr: 0x1000175E0, symSize: 0x80 }
  - { offsetInCU: 0x16539, offset: 0x16539, size: 0x8, addend: 0x0, symName: __ZNSt3__114__unwrap_rangeB8ue170006IPKiS2_EENS_4pairIT0_S4_EET_S6_, symObjAddr: 0x16944, symBinAddr: 0x100017660, symSize: 0x60 }
  - { offsetInCU: 0x16585, offset: 0x16585, size: 0x8, addend: 0x0, symName: __ZNSt3__135__uninitialized_allocator_copy_implB8ue170006INS_9allocatorIiEEKiiiLPv0EEEPT2_RT_PT0_SA_S6_, symObjAddr: 0x169A4, symBinAddr: 0x1000176C0, symSize: 0x38 }
  - { offsetInCU: 0x16606, offset: 0x16606, size: 0x8, addend: 0x0, symName: __ZNSt3__19make_pairB8ue170006IPKiS2_EENS_4pairINS_18__unwrap_ref_decayIT_E4typeENS4_IT0_E4typeEEEOS5_OS8_, symObjAddr: 0x169DC, symBinAddr: 0x1000176F8, symSize: 0x38 }
  - { offsetInCU: 0x16655, offset: 0x16655, size: 0x8, addend: 0x0, symName: __ZNSt3__113__unwrap_iterB8ue170006IPKiNS_18__unwrap_iter_implIS2_Lb1EEELi0EEEDTclsrT0_8__unwrapclsr3stdE7declvalIT_EEEES6_, symObjAddr: 0x16A14, symBinAddr: 0x100017730, symSize: 0x24 }
  - { offsetInCU: 0x167C0, offset: 0x167C0, size: 0x8, addend: 0x0, symName: __ZNSt3__112__to_addressB8ue170006IKiEEPT_S3_, symObjAddr: 0x16ACC, symBinAddr: 0x1000177E8, symSize: 0x14 }
  - { offsetInCU: 0x167F5, offset: 0x167F5, size: 0x8, addend: 0x0, symName: __ZNSt3__14copyB8ue170006IPKiPiEET0_T_S5_S4_, symObjAddr: 0x16AE0, symBinAddr: 0x1000177FC, symSize: 0x40 }
  - { offsetInCU: 0x1684F, offset: 0x1684F, size: 0x8, addend: 0x0, symName: __ZNSt3__16__copyB8ue170006INS_17_ClassicAlgPolicyEPKiS3_PiEENS_4pairIT0_T2_EES6_T1_S7_, symObjAddr: 0x16B20, symBinAddr: 0x10001783C, symSize: 0x44 }
  - { offsetInCU: 0x168BB, offset: 0x168BB, size: 0x8, addend: 0x0, symName: __ZNSt3__123__dispatch_copy_or_moveB8ue170006INS_17_ClassicAlgPolicyENS_11__copy_loopIS1_EENS_14__copy_trivialEPKiS6_PiEENS_4pairIT2_T4_EES9_T3_SA_, symObjAddr: 0x16B64, symBinAddr: 0x100017880, symSize: 0x44 }
  - { offsetInCU: 0x16939, offset: 0x16939, size: 0x8, addend: 0x0, symName: __ZNSt3__121__unwrap_and_dispatchB8ue170006INS_10__overloadINS_11__copy_loopINS_17_ClassicAlgPolicyEEENS_14__copy_trivialEEEPKiS8_PiLi0EEENS_4pairIT0_T2_EESB_T1_SC_, symObjAddr: 0x16BA8, symBinAddr: 0x1000178C4, symSize: 0xB4 }
  - { offsetInCU: 0x16ACA, offset: 0x16ACA, size: 0x8, addend: 0x0, symName: __ZNSt3__19make_pairB8ue170006IPKiPiEENS_4pairINS_18__unwrap_ref_decayIT_E4typeENS5_IT0_E4typeEEEOS6_OS9_, symObjAddr: 0x16CA4, symBinAddr: 0x1000179C0, symSize: 0x38 }
  - { offsetInCU: 0x16B19, offset: 0x16B19, size: 0x8, addend: 0x0, symName: __ZNSt3__114__rewrap_rangeB8ue170006IPKiS2_EET_S3_T0_, symObjAddr: 0x16CDC, symBinAddr: 0x1000179F8, symSize: 0x2C }
  - { offsetInCU: 0x16B65, offset: 0x16B65, size: 0x8, addend: 0x0, symName: __ZNSt3__119__copy_trivial_implB8ue170006IKiiEENS_4pairIPT_PT0_EES4_S4_S6_, symObjAddr: 0x16D08, symBinAddr: 0x100017A24, symSize: 0x80 }
  - { offsetInCU: 0x16BCD, offset: 0x16BCD, size: 0x8, addend: 0x0, symName: __ZNSt3__119__constexpr_memmoveB8ue170006IiKiLi0EEEPT_S3_PT0_NS_15__element_countE, symObjAddr: 0x16D88, symBinAddr: 0x100017AA4, symSize: 0x64 }
  - { offsetInCU: 0x16C3B, offset: 0x16C3B, size: 0x8, addend: 0x0, symName: __ZNSt3__19make_pairB8ue170006IRPKiPiEENS_4pairINS_18__unwrap_ref_decayIT_E4typeENS6_IT0_E4typeEEEOS7_OSA_, symObjAddr: 0x16DEC, symBinAddr: 0x100017B08, symSize: 0x38 }
  - { offsetInCU: 0x16C8A, offset: 0x16C8A, size: 0x8, addend: 0x0, symName: __ZNSt3__113__rewrap_iterB8ue170006IPKiS2_NS_18__unwrap_iter_implIS2_Lb1EEEEET_S5_T0_, symObjAddr: 0x16F04, symBinAddr: 0x100017C20, symSize: 0x3C }
  - { offsetInCU: 0x16CDF, offset: 0x16CDF, size: 0x8, addend: 0x0, symName: __ZNSt3__119__allocate_at_leastB8ue170006INS_9allocatorImEEEENS_19__allocation_resultINS_16allocator_traitsIT_E7pointerEEERS5_m, symObjAddr: 0x17364, symBinAddr: 0x100018080, symSize: 0x40 }
  - { offsetInCU: 0x16F0F, offset: 0x16F0F, size: 0x8, addend: 0x0, symName: __ZNSt3__16fill_nB8ue170006INS_6vectorIbNS_9allocatorIbEEEEEEvNS_14__bit_iteratorIT_Lb0EXLi0EEEENS6_9size_typeEb, symObjAddr: 0x175AC, symBinAddr: 0x1000182C8, symSize: 0x94 }
  - { offsetInCU: 0x16F61, offset: 0x16F61, size: 0x8, addend: 0x0, symName: __ZNSt3__16fill_nB8ue170006IPmmmEET_S2_T0_RKT1_, symObjAddr: 0x17994, symBinAddr: 0x1000186B0, symSize: 0x44 }
  - { offsetInCU: 0x16FC4, offset: 0x16FC4, size: 0x8, addend: 0x0, symName: __ZNSt3__112__to_addressB8ue170006ImEEPT_S2_, symObjAddr: 0x179D8, symBinAddr: 0x1000186F4, symSize: 0x14 }
  - { offsetInCU: 0x16FF9, offset: 0x16FF9, size: 0x8, addend: 0x0, symName: __ZNSt3__18__fill_nB8ue170006IPmmmEET_S2_T0_RKT1_, symObjAddr: 0x179EC, symBinAddr: 0x100018708, symSize: 0x64 }
  - { offsetInCU: 0x1705C, offset: 0x1705C, size: 0x8, addend: 0x0, symName: __ZNSt3__121__convert_to_integralB8ue170006Em, symObjAddr: 0x17A50, symBinAddr: 0x10001876C, symSize: 0x14 }
  - { offsetInCU: 0x17088, offset: 0x17088, size: 0x8, addend: 0x0, symName: __ZNSt3__16fill_nB8ue170006IPmmiEET_S2_T0_RKT1_, symObjAddr: 0x17A94, symBinAddr: 0x1000187B0, symSize: 0x44 }
  - { offsetInCU: 0x170EB, offset: 0x170EB, size: 0x8, addend: 0x0, symName: __ZNSt3__18__fill_nB8ue170006IPmmiEET_S2_T0_RKT1_, symObjAddr: 0x17AD8, symBinAddr: 0x1000187F4, symSize: 0x64 }
  - { offsetInCU: 0x1714E, offset: 0x1714E, size: 0x8, addend: 0x0, symName: __ZNSt3__142__uninitialized_allocator_move_if_noexceptB8ue170006INS_9allocatorIiEENS_16reverse_iteratorIPiEES5_ivEET1_RT_T0_S9_S6_, symObjAddr: 0x18220, symBinAddr: 0x100018F3C, symSize: 0x78 }
  - { offsetInCU: 0x171CB, offset: 0x171CB, size: 0x8, addend: 0x0, symName: __ZNSt3__14moveB8ue170006INS_16reverse_iteratorIPiEES3_EET0_T_S5_S4_, symObjAddr: 0x182E4, symBinAddr: 0x100019000, symSize: 0x78 }
  - { offsetInCU: 0x17225, offset: 0x17225, size: 0x8, addend: 0x0, symName: __ZNSt3__16__moveB8ue170006INS_17_ClassicAlgPolicyENS_16reverse_iteratorIPiEES4_S4_EENS_4pairIT0_T2_EES6_T1_S7_, symObjAddr: 0x1835C, symBinAddr: 0x100019078, symSize: 0x64 }
  - { offsetInCU: 0x17291, offset: 0x17291, size: 0x8, addend: 0x0, symName: __ZNSt3__123__dispatch_copy_or_moveB8ue170006INS_17_ClassicAlgPolicyENS_11__move_loopIS1_EENS_14__move_trivialENS_16reverse_iteratorIPiEES7_S7_EENS_4pairIT2_T4_EES9_T3_SA_, symObjAddr: 0x183C0, symBinAddr: 0x1000190DC, symSize: 0x64 }
  - { offsetInCU: 0x1730F, offset: 0x1730F, size: 0x8, addend: 0x0, symName: __ZNSt3__121__unwrap_and_dispatchB8ue170006INS_10__overloadINS_11__move_loopINS_17_ClassicAlgPolicyEEENS_14__move_trivialEEENS_16reverse_iteratorIPiEES9_S9_Li0EEENS_4pairIT0_T2_EESB_T1_SC_, symObjAddr: 0x18424, symBinAddr: 0x100019140, symSize: 0x12C }
  - { offsetInCU: 0x1739F, offset: 0x1739F, size: 0x8, addend: 0x0, symName: __ZNSt3__114__unwrap_rangeB8ue170006INS_16reverse_iteratorIPiEES3_EENS_4pairIT0_S5_EET_S7_, symObjAddr: 0x18550, symBinAddr: 0x10001926C, symSize: 0x84 }
  - { offsetInCU: 0x174BF, offset: 0x174BF, size: 0x8, addend: 0x0, symName: __ZNSt3__113__unwrap_iterB8ue170006INS_16reverse_iteratorIPiEENS_18__unwrap_iter_implIS3_Lb0EEELi0EEEDTclsrT0_8__unwrapclsr3stdE7declvalIT_EEEES7_, symObjAddr: 0x18674, symBinAddr: 0x100019390, symSize: 0x44 }
  - { offsetInCU: 0x17503, offset: 0x17503, size: 0x8, addend: 0x0, symName: __ZNSt3__19make_pairB8ue170006INS_16reverse_iteratorIPiEES3_EENS_4pairINS_18__unwrap_ref_decayIT_E4typeENS5_IT0_E4typeEEEOS6_OS9_, symObjAddr: 0x186B8, symBinAddr: 0x1000193D4, symSize: 0x38 }
  - { offsetInCU: 0x17552, offset: 0x17552, size: 0x8, addend: 0x0, symName: __ZNSt3__114__rewrap_rangeB8ue170006INS_16reverse_iteratorIPiEES3_EET_S4_T0_, symObjAddr: 0x186F0, symBinAddr: 0x10001940C, symSize: 0x5C }
  - { offsetInCU: 0x1759E, offset: 0x1759E, size: 0x8, addend: 0x0, symName: __ZNSt3__113__rewrap_iterB8ue170006INS_16reverse_iteratorIPiEES3_NS_18__unwrap_iter_implIS3_Lb0EEEEET_S6_T0_, symObjAddr: 0x1874C, symBinAddr: 0x100019468, symSize: 0x74 }
  - { offsetInCU: 0x175F3, offset: 0x175F3, size: 0x8, addend: 0x0, symName: __ZNSt3__1neB8ue170006IPiS1_EEbRKNS_16reverse_iteratorIT_EERKNS2_IT0_EE, symObjAddr: 0x187C0, symBinAddr: 0x1000194DC, symSize: 0x48 }
  - { offsetInCU: 0x17687, offset: 0x17687, size: 0x8, addend: 0x0, symName: __ZNSt3__14fillB8ue170006INS_11__wrap_iterIPiEEiEEvT_S4_RKT0_, symObjAddr: 0x18D6C, symBinAddr: 0x100019A88, symSize: 0x44 }
  - { offsetInCU: 0x176DD, offset: 0x176DD, size: 0x8, addend: 0x0, symName: __ZNSt3__14copyB8ue170006INS_11__wrap_iterIPiEES3_EET0_T_S5_S4_, symObjAddr: 0x18DB0, symBinAddr: 0x100019ACC, symSize: 0x60 }
  - { offsetInCU: 0x17737, offset: 0x17737, size: 0x8, addend: 0x0, symName: __ZNSt3__16__fillB8ue170006INS_11__wrap_iterIPiEEiEEvT_S4_RKT0_NS_26random_access_iterator_tagE, symObjAddr: 0x18E10, symBinAddr: 0x100019B2C, symSize: 0x50 }
  - { offsetInCU: 0x17797, offset: 0x17797, size: 0x8, addend: 0x0, symName: __ZNSt3__16fill_nB8ue170006INS_11__wrap_iterIPiEEliEET_S4_T0_RKT1_, symObjAddr: 0x18E60, symBinAddr: 0x100019B7C, symSize: 0x4C }
  - { offsetInCU: 0x177FA, offset: 0x177FA, size: 0x8, addend: 0x0, symName: __ZNSt3__1miB8ue170006IPiS1_EEDTmicldtfp_4baseEcldtfp0_4baseEERKNS_11__wrap_iterIT_EERKNS3_IT0_EE, symObjAddr: 0x18EAC, symBinAddr: 0x100019BC8, symSize: 0x48 }
  - { offsetInCU: 0x17846, offset: 0x17846, size: 0x8, addend: 0x0, symName: __ZNSt3__18__fill_nB8ue170006INS_11__wrap_iterIPiEEliEET_S4_T0_RKT1_, symObjAddr: 0x18EF4, symBinAddr: 0x100019C10, symSize: 0x80 }
  - { offsetInCU: 0x178A9, offset: 0x178A9, size: 0x8, addend: 0x0, symName: __ZNSt3__121__convert_to_integralB8ue170006El, symObjAddr: 0x18F74, symBinAddr: 0x100019C90, symSize: 0x14 }
  - { offsetInCU: 0x178D5, offset: 0x178D5, size: 0x8, addend: 0x0, symName: __ZNSt3__16__copyB8ue170006INS_17_ClassicAlgPolicyENS_11__wrap_iterIPiEES4_S4_EENS_4pairIT0_T2_EES6_T1_S7_, symObjAddr: 0x18F88, symBinAddr: 0x100019CA4, symSize: 0x5C }
  - { offsetInCU: 0x17941, offset: 0x17941, size: 0x8, addend: 0x0, symName: __ZNSt3__123__dispatch_copy_or_moveB8ue170006INS_17_ClassicAlgPolicyENS_11__copy_loopIS1_EENS_14__copy_trivialENS_11__wrap_iterIPiEES7_S7_EENS_4pairIT2_T4_EES9_T3_SA_, symObjAddr: 0x18FE4, symBinAddr: 0x100019D00, symSize: 0x5C }
  - { offsetInCU: 0x179BF, offset: 0x179BF, size: 0x8, addend: 0x0, symName: __ZNSt3__121__unwrap_and_dispatchB8ue170006INS_10__overloadINS_11__copy_loopINS_17_ClassicAlgPolicyEEENS_14__copy_trivialEEENS_11__wrap_iterIPiEES9_S9_Li0EEENS_4pairIT0_T2_EESB_T1_SC_, symObjAddr: 0x19040, symBinAddr: 0x100019D5C, symSize: 0xDC }
  - { offsetInCU: 0x17A4E, offset: 0x17A4E, size: 0x8, addend: 0x0, symName: __ZNSt3__114__unwrap_rangeB8ue170006INS_11__wrap_iterIPiEES2_EENS_4pairIT0_S5_EET_S7_, symObjAddr: 0x1911C, symBinAddr: 0x100019E38, symSize: 0x70 }
  - { offsetInCU: 0x17A9A, offset: 0x17A9A, size: 0x8, addend: 0x0, symName: __ZNSt3__19make_pairB8ue170006INS_11__wrap_iterIPiEES3_EENS_4pairINS_18__unwrap_ref_decayIT_E4typeENS5_IT0_E4typeEEEOS6_OS9_, symObjAddr: 0x1918C, symBinAddr: 0x100019EA8, symSize: 0x38 }
  - { offsetInCU: 0x17AE9, offset: 0x17AE9, size: 0x8, addend: 0x0, symName: __ZNSt3__114__rewrap_rangeB8ue170006INS_11__wrap_iterIPiEES2_EET_S4_T0_, symObjAddr: 0x191C4, symBinAddr: 0x100019EE0, symSize: 0x3C }
  - { offsetInCU: 0x17B35, offset: 0x17B35, size: 0x8, addend: 0x0, symName: __ZNSt3__113__rewrap_iterB8ue170006INS_11__wrap_iterIPiEES2_NS_18__unwrap_iter_implIS3_Lb1EEEEET_S6_T0_, symObjAddr: 0x19200, symBinAddr: 0x100019F1C, symSize: 0x4C }
  - { offsetInCU: 0x17C5E, offset: 0x17C5E, size: 0x8, addend: 0x0, symName: __ZNSt3__112__to_addressB8ue170006IKcEEPT_S3_, symObjAddr: 0x195F8, symBinAddr: 0x10001A314, symSize: 0x14 }
  - { offsetInCU: 0x17CC6, offset: 0x17CC6, size: 0x8, addend: 0x0, symName: __ZNSt3__120__throw_out_of_rangeB8ue170006EPKc, symObjAddr: 0x196E0, symBinAddr: 0x10001A3FC, symSize: 0x64 }
  - { offsetInCU: 0x17CF0, offset: 0x17CF0, size: 0x8, addend: 0x0, symName: __ZNSt3__19use_facetB8ue170006INS_5ctypeIcEEEERKT_RKNS_6localeE, symObjAddr: 0x19848, symBinAddr: 0x10001A564, symSize: 0x2C }
  - { offsetInCU: 0x189B8, offset: 0x189B8, size: 0x8, addend: 0x0, symName: __ZSt28__throw_bad_array_new_lengthB8ue170006v, symObjAddr: 0x4EFC, symBinAddr: 0x100005C18, symSize: 0x34 }
  - { offsetInCU: 0x18F9C, offset: 0x18F9C, size: 0x8, addend: 0x0, symName: __ZNSt3__16vectorIN7atcoder13static_modintILi754974721ELPv0EEENS_9allocatorIS4_EEE26__swap_out_circular_bufferERNS_14__split_bufferIS4_RS6_EE, symObjAddr: 0x69DC, symBinAddr: 0x1000076F8, symSize: 0x110 }
  - { offsetInCU: 0x19192, offset: 0x19192, size: 0x8, addend: 0x0, symName: __ZNSt3__16vectorIN7atcoder13static_modintILi167772161ELPv0EEENS_9allocatorIS4_EEE26__swap_out_circular_bufferERNS_14__split_bufferIS4_RS6_EE, symObjAddr: 0xA544, symBinAddr: 0x10000B260, symSize: 0x110 }
  - { offsetInCU: 0x19383, offset: 0x19383, size: 0x8, addend: 0x0, symName: __ZNSt3__16vectorIN7atcoder13static_modintILi469762049ELPv0EEENS_9allocatorIS4_EEE26__swap_out_circular_bufferERNS_14__split_bufferIS4_RS6_EE, symObjAddr: 0xDB88, symBinAddr: 0x10000E8A4, symSize: 0x110 }
  - { offsetInCU: 0x1974B, offset: 0x1974B, size: 0x8, addend: 0x0, symName: __ZNSt3__16vectorIiNS_9allocatorIiEEE26__swap_out_circular_bufferERNS_14__split_bufferIiRS2_EE, symObjAddr: 0x17EB8, symBinAddr: 0x100018BD4, symSize: 0x110 }
  - { offsetInCU: 0x1BB5F, offset: 0x1BB5F, size: 0x8, addend: 0x0, symName: __ZNKSt3__16vectorIxNS_9allocatorIxEEE4sizeB8ue170006Ev, symObjAddr: 0x3EC, symBinAddr: 0x100001108, symSize: 0x28 }
  - { offsetInCU: 0x1BB85, offset: 0x1BB85, size: 0x8, addend: 0x0, symName: __ZNSt3__16vectorIxNS_9allocatorIxEEEC1B8ue170006Ev, symObjAddr: 0x414, symBinAddr: 0x100001130, symSize: 0x2C }
  - { offsetInCU: 0x1BBAF, offset: 0x1BBAF, size: 0x8, addend: 0x0, symName: __ZNSt3__16vectorIxNS_9allocatorIxEEEC1Em, symObjAddr: 0xDDC, symBinAddr: 0x100001AF8, symSize: 0x34 }
  - { offsetInCU: 0x1BBEA, offset: 0x1BBEA, size: 0x8, addend: 0x0, symName: __ZNSt3__16vectorIxNS_9allocatorIxEEEixB8ue170006Em, symObjAddr: 0xE10, symBinAddr: 0x100001B2C, symSize: 0x24 }
  - { offsetInCU: 0x1BC21, offset: 0x1BC21, size: 0x8, addend: 0x0, symName: __ZNSt3__16vectorIxNS_9allocatorIxEEED1B8ue170006Ev, symObjAddr: 0xE8C, symBinAddr: 0x100001BA8, symSize: 0x2C }
  - { offsetInCU: 0x1BC5A, offset: 0x1BC5A, size: 0x8, addend: 0x0, symName: __ZN7atcoder8internal7barrettC1Ej, symObjAddr: 0x1000, symBinAddr: 0x100001D1C, symSize: 0x34 }
  - { offsetInCU: 0x1BC92, offset: 0x1BC92, size: 0x8, addend: 0x0, symName: __ZNK7atcoder8internal7barrett3mulEjj, symObjAddr: 0x1034, symBinAddr: 0x100001D50, symSize: 0xAC }
  - { offsetInCU: 0x1BCFE, offset: 0x1BCFE, size: 0x8, addend: 0x0, symName: __ZNKSt3__16vectorIxNS_9allocatorIxEEEixB8ue170006Em, symObjAddr: 0x1614, symBinAddr: 0x100002330, symSize: 0x24 }
  - { offsetInCU: 0x1BD55, offset: 0x1BD55, size: 0x8, addend: 0x0, symName: __ZNSt3__14pairIxxEC1B8ue170006IiiLPv0EEEOT_OT0_, symObjAddr: 0x1674, symBinAddr: 0x100002390, symSize: 0x3C }
  - { offsetInCU: 0x1BE2A, offset: 0x1BE2A, size: 0x8, addend: 0x0, symName: __ZNSt3__15tupleIJRxS1_EEaSB8ue170006IxxLi0EEERS2_ONS_4pairIT_T0_EE, symObjAddr: 0x16E8, symBinAddr: 0x100002404, symSize: 0x68 }
  - { offsetInCU: 0x1BE77, offset: 0x1BE77, size: 0x8, addend: 0x0, symName: __ZNSt3__14pairIxxEC1B8ue170006IRxS3_LPv0EEEOT_OT0_, symObjAddr: 0x1750, symBinAddr: 0x10000246C, symSize: 0x3C }
  - { offsetInCU: 0x1BED5, offset: 0x1BED5, size: 0x8, addend: 0x0, symName: __ZNKSt3__16vectorIiNS_9allocatorIiEEE4sizeB8ue170006Ev, symObjAddr: 0x1A6C, symBinAddr: 0x100002788, symSize: 0x28 }
  - { offsetInCU: 0x1BEFB, offset: 0x1BEFB, size: 0x8, addend: 0x0, symName: __ZNSt3__16vectorIiNS_9allocatorIiEEEC1Em, symObjAddr: 0x1A94, symBinAddr: 0x1000027B0, symSize: 0x34 }
  - { offsetInCU: 0x1BF36, offset: 0x1BF36, size: 0x8, addend: 0x0, symName: __ZNSt3__16vectorIiNS_9allocatorIiEEE5beginB8ue170006Ev, symObjAddr: 0x1B38, symBinAddr: 0x100002854, symSize: 0x30 }
  - { offsetInCU: 0x1BF5E, offset: 0x1BF5E, size: 0x8, addend: 0x0, symName: __ZNSt3__16vectorIiNS_9allocatorIiEEE3endB8ue170006Ev, symObjAddr: 0x1B68, symBinAddr: 0x100002884, symSize: 0x30 }
  - { offsetInCU: 0x1BF86, offset: 0x1BF86, size: 0x8, addend: 0x0, symName: __ZNSt3__16vectorIiNS_9allocatorIiEEED1B8ue170006Ev, symObjAddr: 0x1BE4, symBinAddr: 0x100002900, symSize: 0x2C }
  - { offsetInCU: 0x1BFB0, offset: 0x1BFB0, size: 0x8, addend: 0x0, symName: __ZNSt3__16vectorIiNS_9allocatorIiEEEC1ERKS3_, symObjAddr: 0x1F00, symBinAddr: 0x100002C1C, symSize: 0x34 }
  - { offsetInCU: 0x1BFEB, offset: 0x1BFEB, size: 0x8, addend: 0x0, symName: __ZNSt3__16vectorIiNS_9allocatorIiEEEixB8ue170006Em, symObjAddr: 0x1F78, symBinAddr: 0x100002C94, symSize: 0x24 }
  - { offsetInCU: 0x1C02C, offset: 0x1C02C, size: 0x8, addend: 0x0, symName: '__ZZN7atcoder8internal11sa_doublingERKNSt3__16vectorIiNS1_9allocatorIiEEEEENK3$_1clEii', symObjAddr: 0x1F9C, symBinAddr: 0x100002CB8, symSize: 0x1B8 }
  - { offsetInCU: 0x1C08E, offset: 0x1C08E, size: 0x8, addend: 0x0, symName: __ZNKSt3__16vectorIiNS_9allocatorIiEEE5beginB8ue170006Ev, symObjAddr: 0x22F4, symBinAddr: 0x100003010, symSize: 0x30 }
  - { offsetInCU: 0x1C0B6, offset: 0x1C0B6, size: 0x8, addend: 0x0, symName: __ZNKSt3__16vectorIiNS_9allocatorIiEEE3endB8ue170006Ev, symObjAddr: 0x2324, symBinAddr: 0x100003040, symSize: 0x30 }
  - { offsetInCU: 0x1C0DE, offset: 0x1C0DE, size: 0x8, addend: 0x0, symName: __ZNKSt3__111__wrap_iterIPKiEdeB8ue170006Ev, symObjAddr: 0x2388, symBinAddr: 0x1000030A4, symSize: 0x18 }
  - { offsetInCU: 0x1C104, offset: 0x1C104, size: 0x8, addend: 0x0, symName: __ZNSt3__111__wrap_iterIPKiEppB8ue170006Ev, symObjAddr: 0x23A0, symBinAddr: 0x1000030BC, symSize: 0x20 }
  - { offsetInCU: 0x1C12A, offset: 0x1C12A, size: 0x8, addend: 0x0, symName: __ZNKSt3__112basic_stringIcNS_11char_traitsIcEENS_9allocatorIcEEE4sizeB8ue170006Ev, symObjAddr: 0x3218, symBinAddr: 0x100003F34, symSize: 0x54 }
  - { offsetInCU: 0x1C150, offset: 0x1C150, size: 0x8, addend: 0x0, symName: __ZNKSt3__112basic_stringIcNS_11char_traitsIcEENS_9allocatorIcEEEixB8ue170006Em, symObjAddr: 0x326C, symBinAddr: 0x100003F88, symSize: 0x30 }
  - { offsetInCU: 0x1C184, offset: 0x1C184, size: 0x8, addend: 0x0, symName: __Z5solvexxNSt3__16vectorIxNS_9allocatorIxEEEE, symObjAddr: 0x3A60, symBinAddr: 0x10000477C, symSize: 0xE0 }
  - { offsetInCU: 0x1C210, offset: 0x1C210, size: 0x8, addend: 0x0, symName: __ZNSt3__16vectorIxNS_9allocatorIxEEE2atEm, symObjAddr: 0x3B40, symBinAddr: 0x10000485C, symSize: 0x60 }
  - { offsetInCU: 0x1C2F9, offset: 0x1C2F9, size: 0x8, addend: 0x0, symName: __ZNSt3__113basic_ostreamIcNS_11char_traitsIcEEElsB8ue170006EPFRS3_S4_E, symObjAddr: 0x3BA0, symBinAddr: 0x1000048BC, symSize: 0x2C }
  - { offsetInCU: 0x1C32D, offset: 0x1C32D, size: 0x8, addend: 0x0, symName: _main, symObjAddr: 0x3C24, symBinAddr: 0x100004940, symSize: 0x138 }
  - { offsetInCU: 0x1C38E, offset: 0x1C38E, size: 0x8, addend: 0x0, symName: __ZNSt3__16vectorIxNS_9allocatorIxEEEC1B8ue170006EOS3_, symObjAddr: 0x3D5C, symBinAddr: 0x100004A78, symSize: 0x34 }
  - { offsetInCU: 0x1C3C9, offset: 0x1C3C9, size: 0x8, addend: 0x0, symName: __ZN7atcoder8internal7barrettC2Ej, symObjAddr: 0x3D90, symBinAddr: 0x100004AAC, symSize: 0x38 }
  - { offsetInCU: 0x1C401, offset: 0x1C401, size: 0x8, addend: 0x0, symName: __ZNSt3__14pairIxxEC1B8ue170006IRxiLPv0EEEOT_OT0_, symObjAddr: 0x3DC8, symBinAddr: 0x100004AE4, symSize: 0x3C }
  - { offsetInCU: 0x1C45F, offset: 0x1C45F, size: 0x8, addend: 0x0, symName: __ZNSt3__14pairIxxEC2B8ue170006IRxiLPv0EEEOT_OT0_, symObjAddr: 0x3E04, symBinAddr: 0x100004B20, symSize: 0x34 }
  - { offsetInCU: 0x1C4BD, offset: 0x1C4BD, size: 0x8, addend: 0x0, symName: __ZNSt3__14pairIxxEC2B8ue170006IiiLPv0EEEOT_OT0_, symObjAddr: 0x3E38, symBinAddr: 0x100004B54, symSize: 0x34 }
  - { offsetInCU: 0x1C51B, offset: 0x1C51B, size: 0x8, addend: 0x0, symName: __ZNSt3__15tupleIJRxS1_EEC1B8ue170006INS_4_AndELi0EEES1_S1_, symObjAddr: 0x3E6C, symBinAddr: 0x100004B88, symSize: 0x3C }
  - { offsetInCU: 0x1C572, offset: 0x1C572, size: 0x8, addend: 0x0, symName: __ZNSt3__15tupleIJRxS1_EEC2B8ue170006INS_4_AndELi0EEES1_S1_, symObjAddr: 0x3EA8, symBinAddr: 0x100004BC4, symSize: 0x3C }
  - { offsetInCU: 0x1C5C9, offset: 0x1C5C9, size: 0x8, addend: 0x0, symName: __ZNSt3__112__tuple_implINS_15__tuple_indicesIJLm0ELm1EEEEJRxS3_EEC1B8ue170006IJLm0ELm1EEJS3_S3_EJEJEJS3_S3_EEENS1_IJXspT_EEEENS_13__tuple_typesIJDpT0_EEENS1_IJXspT1_EEEENS7_IJDpT2_EEEDpOT3_, symObjAddr: 0x3EE4, symBinAddr: 0x100004C00, symSize: 0x3C }
  - { offsetInCU: 0x1C679, offset: 0x1C679, size: 0x8, addend: 0x0, symName: __ZNSt3__112__tuple_implINS_15__tuple_indicesIJLm0ELm1EEEEJRxS3_EEC2B8ue170006IJLm0ELm1EEJS3_S3_EJEJEJS3_S3_EEENS1_IJXspT_EEEENS_13__tuple_typesIJDpT0_EEENS1_IJXspT1_EEEENS7_IJDpT2_EEEDpOT3_, symObjAddr: 0x3F20, symBinAddr: 0x100004C3C, symSize: 0x48 }
  - { offsetInCU: 0x1C729, offset: 0x1C729, size: 0x8, addend: 0x0, symName: __ZNSt3__112__tuple_leafILm0ERxLb0EEC2B8ue170006IS1_vEEOT_, symObjAddr: 0x3F68, symBinAddr: 0x100004C84, symSize: 0x20 }
  - { offsetInCU: 0x1C76C, offset: 0x1C76C, size: 0x8, addend: 0x0, symName: __ZNSt3__112__tuple_leafILm1ERxLb0EEC2B8ue170006IS1_vEEOT_, symObjAddr: 0x3F88, symBinAddr: 0x100004CA4, symSize: 0x20 }
  - { offsetInCU: 0x1C7AF, offset: 0x1C7AF, size: 0x8, addend: 0x0, symName: __ZNSt3__14pairIxxEC2B8ue170006IRxS3_LPv0EEEOT_OT0_, symObjAddr: 0x3FA8, symBinAddr: 0x100004CC4, symSize: 0x34 }
  - { offsetInCU: 0x1C80D, offset: 0x1C80D, size: 0x8, addend: 0x0, symName: __ZNKSt3__111__wrap_iterIPKiE4baseB8ue170006Ev, symObjAddr: 0x4024, symBinAddr: 0x100004D40, symSize: 0x18 }
  - { offsetInCU: 0x1C833, offset: 0x1C833, size: 0x8, addend: 0x0, symName: __ZNSt3__16vectorIxNS_9allocatorIxEEEC2B8ue170006Ev, symObjAddr: 0x403C, symBinAddr: 0x100004D58, symSize: 0x4C }
  - { offsetInCU: 0x1C869, offset: 0x1C869, size: 0x8, addend: 0x0, symName: __ZNSt3__117__compressed_pairIPxNS_9allocatorIxEEEC1B8ue170006IDnNS_18__default_init_tagEEEOT_OT0_, symObjAddr: 0x4088, symBinAddr: 0x100004DA4, symSize: 0x3C }
  - { offsetInCU: 0x1C8C1, offset: 0x1C8C1, size: 0x8, addend: 0x0, symName: __ZNSt3__117__compressed_pairIPxNS_9allocatorIxEEEC2B8ue170006IDnNS_18__default_init_tagEEEOT_OT0_, symObjAddr: 0x40D0, symBinAddr: 0x100004DEC, symSize: 0x40 }
  - { offsetInCU: 0x1C919, offset: 0x1C919, size: 0x8, addend: 0x0, symName: __ZNSt3__122__compressed_pair_elemIPxLi0ELb0EEC2B8ue170006IDnvEEOT_, symObjAddr: 0x4110, symBinAddr: 0x100004E2C, symSize: 0x1C }
  - { offsetInCU: 0x1C95B, offset: 0x1C95B, size: 0x8, addend: 0x0, symName: __ZNSt3__122__compressed_pair_elemINS_9allocatorIxEELi1ELb1EEC2B8ue170006ENS_18__default_init_tagE, symObjAddr: 0x412C, symBinAddr: 0x100004E48, symSize: 0x2C }
  - { offsetInCU: 0x1C98F, offset: 0x1C98F, size: 0x8, addend: 0x0, symName: __ZNSt3__19allocatorIxEC2B8ue170006Ev, symObjAddr: 0x4158, symBinAddr: 0x100004E74, symSize: 0x2C }
  - { offsetInCU: 0x1C9B9, offset: 0x1C9B9, size: 0x8, addend: 0x0, symName: __ZNSt3__116__non_trivial_ifILb1ENS_9allocatorIxEEEC2B8ue170006Ev, symObjAddr: 0x4184, symBinAddr: 0x100004EA0, symSize: 0x14 }
  - { offsetInCU: 0x1C9E3, offset: 0x1C9E3, size: 0x8, addend: 0x0, symName: __ZNSt3__16vectorIN7atcoder13static_modintILi754974721ELPv0EEENS_9allocatorIS4_EEEC1Em, symObjAddr: 0x4198, symBinAddr: 0x100004EB4, symSize: 0x34 }
  - { offsetInCU: 0x1CA1E, offset: 0x1CA1E, size: 0x8, addend: 0x0, symName: __ZN7atcoder13static_modintILi754974721ELPv0EEC1IxLS1_0EEET_, symObjAddr: 0x41CC, symBinAddr: 0x100004EE8, symSize: 0x34 }
  - { offsetInCU: 0x1CA65, offset: 0x1CA65, size: 0x8, addend: 0x0, symName: __ZNSt3__16vectorIN7atcoder13static_modintILi754974721ELPv0EEENS_9allocatorIS4_EEEixB8ue170006Em, symObjAddr: 0x4200, symBinAddr: 0x100004F1C, symSize: 0x24 }
  - { offsetInCU: 0x1CA9C, offset: 0x1CA9C, size: 0x8, addend: 0x0, symName: __ZNSt3__16vectorIN7atcoder13static_modintILi754974721ELPv0EEENS_9allocatorIS4_EEEC1B8ue170006EOS7_, symObjAddr: 0x45A8, symBinAddr: 0x1000052C4, symSize: 0x34 }
  - { offsetInCU: 0x1CAD7, offset: 0x1CAD7, size: 0x8, addend: 0x0, symName: __ZNSt3__16vectorIN7atcoder13static_modintILi754974721ELPv0EEENS_9allocatorIS4_EEED1B8ue170006Ev, symObjAddr: 0x45DC, symBinAddr: 0x1000052F8, symSize: 0x2C }
  - { offsetInCU: 0x1CB01, offset: 0x1CB01, size: 0x8, addend: 0x0, symName: __ZNK7atcoder13static_modintILi754974721ELPv0EE3valEv, symObjAddr: 0x4608, symBinAddr: 0x100005324, symSize: 0x18 }
  - { offsetInCU: 0x1CB27, offset: 0x1CB27, size: 0x8, addend: 0x0, symName: __ZNSt3__16vectorIN7atcoder13static_modintILi754974721ELPv0EEENS_9allocatorIS4_EEEC2Em, symObjAddr: 0x4620, symBinAddr: 0x10000533C, symSize: 0xD4 }
  - { offsetInCU: 0x1CB77, offset: 0x1CB77, size: 0x8, addend: 0x0, symName: __ZNSt3__117__compressed_pairIPN7atcoder13static_modintILi754974721ELPv0EEENS_9allocatorIS4_EEEC1B8ue170006IDnNS_18__default_init_tagEEEOT_OT0_, symObjAddr: 0x46F4, symBinAddr: 0x100005410, symSize: 0x3C }
  - { offsetInCU: 0x1CBCF, offset: 0x1CBCF, size: 0x8, addend: 0x0, symName: __ZNSt3__16vectorIN7atcoder13static_modintILi754974721ELPv0EEENS_9allocatorIS4_EEE16__destroy_vectorC1B8ue170006ERS7_, symObjAddr: 0x4770, symBinAddr: 0x10000548C, symSize: 0x34 }
  - { offsetInCU: 0x1CC08, offset: 0x1CC08, size: 0x8, addend: 0x0, symName: __ZNSt3__16vectorIN7atcoder13static_modintILi754974721ELPv0EEENS_9allocatorIS4_EEE11__vallocateB8ue170006Em, symObjAddr: 0x47A4, symBinAddr: 0x1000054C0, symSize: 0xAC }
  - { offsetInCU: 0x1CC4C, offset: 0x1CC4C, size: 0x8, addend: 0x0, symName: __ZNSt3__16vectorIN7atcoder13static_modintILi754974721ELPv0EEENS_9allocatorIS4_EEE18__construct_at_endEm, symObjAddr: 0x4850, symBinAddr: 0x10000556C, symSize: 0xC8 }
  - { offsetInCU: 0x1CCBE, offset: 0x1CCBE, size: 0x8, addend: 0x0, symName: __ZNSt3__128__exception_guard_exceptionsINS_6vectorIN7atcoder13static_modintILi754974721ELPv0EEENS_9allocatorIS5_EEE16__destroy_vectorEE10__completeB8ue170006Ev, symObjAddr: 0x4918, symBinAddr: 0x100005634, symSize: 0x1C }
  - { offsetInCU: 0x1CCE4, offset: 0x1CCE4, size: 0x8, addend: 0x0, symName: __ZNSt3__128__exception_guard_exceptionsINS_6vectorIN7atcoder13static_modintILi754974721ELPv0EEENS_9allocatorIS5_EEE16__destroy_vectorEED1B8ue170006Ev, symObjAddr: 0x4934, symBinAddr: 0x100005650, symSize: 0x2C }
  - { offsetInCU: 0x1CD0E, offset: 0x1CD0E, size: 0x8, addend: 0x0, symName: __ZNSt3__117__compressed_pairIPN7atcoder13static_modintILi754974721ELPv0EEENS_9allocatorIS4_EEEC2B8ue170006IDnNS_18__default_init_tagEEEOT_OT0_, symObjAddr: 0x4960, symBinAddr: 0x10000567C, symSize: 0x40 }
  - { offsetInCU: 0x1CD66, offset: 0x1CD66, size: 0x8, addend: 0x0, symName: __ZNSt3__122__compressed_pair_elemIPN7atcoder13static_modintILi754974721ELPv0EEELi0ELb0EEC2B8ue170006IDnvEEOT_, symObjAddr: 0x49A0, symBinAddr: 0x1000056BC, symSize: 0x1C }
  - { offsetInCU: 0x1CDA8, offset: 0x1CDA8, size: 0x8, addend: 0x0, symName: __ZNSt3__122__compressed_pair_elemINS_9allocatorIN7atcoder13static_modintILi754974721ELPv0EEEEELi1ELb1EEC2B8ue170006ENS_18__default_init_tagE, symObjAddr: 0x49BC, symBinAddr: 0x1000056D8, symSize: 0x2C }
  - { offsetInCU: 0x1CDDC, offset: 0x1CDDC, size: 0x8, addend: 0x0, symName: __ZNSt3__19allocatorIN7atcoder13static_modintILi754974721ELPv0EEEEC2B8ue170006Ev, symObjAddr: 0x49E8, symBinAddr: 0x100005704, symSize: 0x2C }
  - { offsetInCU: 0x1CE06, offset: 0x1CE06, size: 0x8, addend: 0x0, symName: __ZNSt3__116__non_trivial_ifILb1ENS_9allocatorIN7atcoder13static_modintILi754974721ELPv0EEEEEEC2B8ue170006Ev, symObjAddr: 0x4A14, symBinAddr: 0x100005730, symSize: 0x14 }
  - { offsetInCU: 0x1CE30, offset: 0x1CE30, size: 0x8, addend: 0x0, symName: __ZNSt3__128__exception_guard_exceptionsINS_6vectorIN7atcoder13static_modintILi754974721ELPv0EEENS_9allocatorIS5_EEE16__destroy_vectorEEC1B8ue170006ES9_, symObjAddr: 0x4A28, symBinAddr: 0x100005744, symSize: 0x34 }
  - { offsetInCU: 0x1CE68, offset: 0x1CE68, size: 0x8, addend: 0x0, symName: __ZNSt3__128__exception_guard_exceptionsINS_6vectorIN7atcoder13static_modintILi754974721ELPv0EEENS_9allocatorIS5_EEE16__destroy_vectorEEC2B8ue170006ES9_, symObjAddr: 0x4A5C, symBinAddr: 0x100005778, symSize: 0x24 }
  - { offsetInCU: 0x1CEA0, offset: 0x1CEA0, size: 0x8, addend: 0x0, symName: __ZNSt3__16vectorIN7atcoder13static_modintILi754974721ELPv0EEENS_9allocatorIS4_EEE16__destroy_vectorC2B8ue170006ERS7_, symObjAddr: 0x4A80, symBinAddr: 0x10000579C, symSize: 0x20 }
  - { offsetInCU: 0x1CED9, offset: 0x1CED9, size: 0x8, addend: 0x0, symName: __ZNKSt3__16vectorIN7atcoder13static_modintILi754974721ELPv0EEENS_9allocatorIS4_EEE8max_sizeEv, symObjAddr: 0x4AA0, symBinAddr: 0x1000057BC, symSize: 0x60 }
  - { offsetInCU: 0x1CF01, offset: 0x1CF01, size: 0x8, addend: 0x0, symName: __ZNKSt3__16vectorIN7atcoder13static_modintILi754974721ELPv0EEENS_9allocatorIS4_EEE20__throw_length_errorB8ue170006Ev, symObjAddr: 0x4B00, symBinAddr: 0x10000581C, symSize: 0x1C }
  - { offsetInCU: 0x1CF27, offset: 0x1CF27, size: 0x8, addend: 0x0, symName: __ZNSt3__16vectorIN7atcoder13static_modintILi754974721ELPv0EEENS_9allocatorIS4_EEE7__allocB8ue170006Ev, symObjAddr: 0x4B5C, symBinAddr: 0x100005878, symSize: 0x28 }
  - { offsetInCU: 0x1CF4D, offset: 0x1CF4D, size: 0x8, addend: 0x0, symName: __ZNSt3__16vectorIN7atcoder13static_modintILi754974721ELPv0EEENS_9allocatorIS4_EEE9__end_capB8ue170006Ev, symObjAddr: 0x4B84, symBinAddr: 0x1000058A0, symSize: 0x28 }
  - { offsetInCU: 0x1CF73, offset: 0x1CF73, size: 0x8, addend: 0x0, symName: __ZNKSt3__16vectorIN7atcoder13static_modintILi754974721ELPv0EEENS_9allocatorIS4_EEE14__annotate_newB8ue170006Em, symObjAddr: 0x4BAC, symBinAddr: 0x1000058C8, symSize: 0xAC }
  - { offsetInCU: 0x1CFB2, offset: 0x1CFB2, size: 0x8, addend: 0x0, symName: __ZNSt3__116allocator_traitsINS_9allocatorIN7atcoder13static_modintILi754974721ELPv0EEEEEE8max_sizeB8ue170006IS6_vEEmRKS6_, symObjAddr: 0x4C84, symBinAddr: 0x1000059A0, symSize: 0x24 }
  - { offsetInCU: 0x1CFE0, offset: 0x1CFE0, size: 0x8, addend: 0x0, symName: __ZNKSt3__16vectorIN7atcoder13static_modintILi754974721ELPv0EEENS_9allocatorIS4_EEE7__allocB8ue170006Ev, symObjAddr: 0x4CA8, symBinAddr: 0x1000059C4, symSize: 0x28 }
  - { offsetInCU: 0x1D006, offset: 0x1D006, size: 0x8, addend: 0x0, symName: __ZNSt3__114numeric_limitsIlE3maxB8ue170006Ev, symObjAddr: 0x4CD0, symBinAddr: 0x1000059EC, symSize: 0x14 }
  - { offsetInCU: 0x1D024, offset: 0x1D024, size: 0x8, addend: 0x0, symName: __ZNKSt3__16__lessIvvEclB8ue170006ImmEEbRKT_RKT0_, symObjAddr: 0x4D38, symBinAddr: 0x100005A54, symSize: 0x34 }
  - { offsetInCU: 0x1D078, offset: 0x1D078, size: 0x8, addend: 0x0, symName: __ZNKSt3__19allocatorIN7atcoder13static_modintILi754974721ELPv0EEEE8max_sizeB8ue170006Ev, symObjAddr: 0x4D6C, symBinAddr: 0x100005A88, symSize: 0x14 }
  - { offsetInCU: 0x1D09E, offset: 0x1D09E, size: 0x8, addend: 0x0, symName: __ZNKSt3__117__compressed_pairIPN7atcoder13static_modintILi754974721ELPv0EEENS_9allocatorIS4_EEE6secondB8ue170006Ev, symObjAddr: 0x4D80, symBinAddr: 0x100005A9C, symSize: 0x24 }
  - { offsetInCU: 0x1D0C4, offset: 0x1D0C4, size: 0x8, addend: 0x0, symName: __ZNKSt3__122__compressed_pair_elemINS_9allocatorIN7atcoder13static_modintILi754974721ELPv0EEEEELi1ELb1EE5__getB8ue170006Ev, symObjAddr: 0x4DA4, symBinAddr: 0x100005AC0, symSize: 0x14 }
  - { offsetInCU: 0x1D0EA, offset: 0x1D0EA, size: 0x8, addend: 0x0, symName: __ZNSt3__123__libcpp_numeric_limitsIlLb1EE3maxB8ue170006Ev, symObjAddr: 0x4DB8, symBinAddr: 0x100005AD4, symSize: 0x8 }
  - { offsetInCU: 0x1D0FE, offset: 0x1D0FE, size: 0x8, addend: 0x0, symName: __ZNSt12length_errorC1B8ue170006EPKc, symObjAddr: 0x4E24, symBinAddr: 0x100005B40, symSize: 0x34 }
  - { offsetInCU: 0x1D136, offset: 0x1D136, size: 0x8, addend: 0x0, symName: __ZNSt12length_errorC2B8ue170006EPKc, symObjAddr: 0x4E58, symBinAddr: 0x100005B74, symSize: 0x4C }
  - { offsetInCU: 0x1D16E, offset: 0x1D16E, size: 0x8, addend: 0x0, symName: __ZNSt3__19allocatorIN7atcoder13static_modintILi754974721ELPv0EEEE8allocateB8ue170006Em, symObjAddr: 0x4EA4, symBinAddr: 0x100005BC0, symSize: 0x58 }
  - { offsetInCU: 0x1D1A2, offset: 0x1D1A2, size: 0x8, addend: 0x0, symName: __ZNSt3__117__compressed_pairIPN7atcoder13static_modintILi754974721ELPv0EEENS_9allocatorIS4_EEE6secondB8ue170006Ev, symObjAddr: 0x5000, symBinAddr: 0x100005D1C, symSize: 0x24 }
  - { offsetInCU: 0x1D1C8, offset: 0x1D1C8, size: 0x8, addend: 0x0, symName: __ZNSt3__122__compressed_pair_elemINS_9allocatorIN7atcoder13static_modintILi754974721ELPv0EEEEELi1ELb1EE5__getB8ue170006Ev, symObjAddr: 0x5024, symBinAddr: 0x100005D40, symSize: 0x14 }
  - { offsetInCU: 0x1D1EE, offset: 0x1D1EE, size: 0x8, addend: 0x0, symName: __ZNSt3__117__compressed_pairIPN7atcoder13static_modintILi754974721ELPv0EEENS_9allocatorIS4_EEE5firstB8ue170006Ev, symObjAddr: 0x5038, symBinAddr: 0x100005D54, symSize: 0x24 }
  - { offsetInCU: 0x1D214, offset: 0x1D214, size: 0x8, addend: 0x0, symName: __ZNSt3__122__compressed_pair_elemIPN7atcoder13static_modintILi754974721ELPv0EEELi0ELb0EE5__getB8ue170006Ev, symObjAddr: 0x505C, symBinAddr: 0x100005D78, symSize: 0x14 }
  - { offsetInCU: 0x1D23A, offset: 0x1D23A, size: 0x8, addend: 0x0, symName: __ZNKSt3__16vectorIN7atcoder13static_modintILi754974721ELPv0EEENS_9allocatorIS4_EEE31__annotate_contiguous_containerB8ue170006EPKvS9_S9_S9_, symObjAddr: 0x5070, symBinAddr: 0x100005D8C, symSize: 0x20 }
  - { offsetInCU: 0x1D28C, offset: 0x1D28C, size: 0x8, addend: 0x0, symName: __ZNKSt3__16vectorIN7atcoder13static_modintILi754974721ELPv0EEENS_9allocatorIS4_EEE4dataB8ue170006Ev, symObjAddr: 0x5090, symBinAddr: 0x100005DAC, symSize: 0x28 }
  - { offsetInCU: 0x1D2B2, offset: 0x1D2B2, size: 0x8, addend: 0x0, symName: __ZNKSt3__16vectorIN7atcoder13static_modintILi754974721ELPv0EEENS_9allocatorIS4_EEE8capacityB8ue170006Ev, symObjAddr: 0x50B8, symBinAddr: 0x100005DD4, symSize: 0x40 }
  - { offsetInCU: 0x1D2D8, offset: 0x1D2D8, size: 0x8, addend: 0x0, symName: __ZNKSt3__16vectorIN7atcoder13static_modintILi754974721ELPv0EEENS_9allocatorIS4_EEE9__end_capB8ue170006Ev, symObjAddr: 0x510C, symBinAddr: 0x100005E28, symSize: 0x28 }
  - { offsetInCU: 0x1D2FE, offset: 0x1D2FE, size: 0x8, addend: 0x0, symName: __ZNKSt3__117__compressed_pairIPN7atcoder13static_modintILi754974721ELPv0EEENS_9allocatorIS4_EEE5firstB8ue170006Ev, symObjAddr: 0x5134, symBinAddr: 0x100005E50, symSize: 0x24 }
  - { offsetInCU: 0x1D324, offset: 0x1D324, size: 0x8, addend: 0x0, symName: __ZNKSt3__122__compressed_pair_elemIPN7atcoder13static_modintILi754974721ELPv0EEELi0ELb0EE5__getB8ue170006Ev, symObjAddr: 0x5158, symBinAddr: 0x100005E74, symSize: 0x14 }
  - { offsetInCU: 0x1D363, offset: 0x1D363, size: 0x8, addend: 0x0, symName: __ZNSt3__16vectorIN7atcoder13static_modintILi754974721ELPv0EEENS_9allocatorIS4_EEE21_ConstructTransactionC1B8ue170006ERS7_m, symObjAddr: 0x516C, symBinAddr: 0x100005E88, symSize: 0x3C }
  - { offsetInCU: 0x1D3AB, offset: 0x1D3AB, size: 0x8, addend: 0x0, symName: __ZNSt3__116allocator_traitsINS_9allocatorIN7atcoder13static_modintILi754974721ELPv0EEEEEE9constructB8ue170006IS5_JEvEEvRS6_PT_DpOT0_, symObjAddr: 0x51A8, symBinAddr: 0x100005EC4, symSize: 0x2C }
  - { offsetInCU: 0x1D3ED, offset: 0x1D3ED, size: 0x8, addend: 0x0, symName: __ZNSt3__16vectorIN7atcoder13static_modintILi754974721ELPv0EEENS_9allocatorIS4_EEE21_ConstructTransactionD1B8ue170006Ev, symObjAddr: 0x51D4, symBinAddr: 0x100005EF0, symSize: 0x2C }
  - { offsetInCU: 0x1D417, offset: 0x1D417, size: 0x8, addend: 0x0, symName: __ZNSt3__16vectorIN7atcoder13static_modintILi754974721ELPv0EEENS_9allocatorIS4_EEE21_ConstructTransactionC2B8ue170006ERS7_m, symObjAddr: 0x5200, symBinAddr: 0x100005F1C, symSize: 0x44 }
  - { offsetInCU: 0x1D45F, offset: 0x1D45F, size: 0x8, addend: 0x0, symName: __ZNSt3__19allocatorIN7atcoder13static_modintILi754974721ELPv0EEEE9constructB8ue170006IS4_JEEEvPT_DpOT0_, symObjAddr: 0x5244, symBinAddr: 0x100005F60, symSize: 0x28 }
  - { offsetInCU: 0x1D4A1, offset: 0x1D4A1, size: 0x8, addend: 0x0, symName: __ZN7atcoder13static_modintILi754974721ELPv0EEC1Ev, symObjAddr: 0x526C, symBinAddr: 0x100005F88, symSize: 0x2C }
  - { offsetInCU: 0x1D4CB, offset: 0x1D4CB, size: 0x8, addend: 0x0, symName: __ZN7atcoder13static_modintILi754974721ELPv0EEC2Ev, symObjAddr: 0x5298, symBinAddr: 0x100005FB4, symSize: 0x18 }
  - { offsetInCU: 0x1D4F5, offset: 0x1D4F5, size: 0x8, addend: 0x0, symName: __ZNSt3__16vectorIN7atcoder13static_modintILi754974721ELPv0EEENS_9allocatorIS4_EEE21_ConstructTransactionD2B8ue170006Ev, symObjAddr: 0x52B0, symBinAddr: 0x100005FCC, symSize: 0x20 }
  - { offsetInCU: 0x1D51F, offset: 0x1D51F, size: 0x8, addend: 0x0, symName: __ZNSt3__128__exception_guard_exceptionsINS_6vectorIN7atcoder13static_modintILi754974721ELPv0EEENS_9allocatorIS5_EEE16__destroy_vectorEED2B8ue170006Ev, symObjAddr: 0x52D0, symBinAddr: 0x100005FEC, symSize: 0x50 }
  - { offsetInCU: 0x1D549, offset: 0x1D549, size: 0x8, addend: 0x0, symName: __ZNSt3__16vectorIN7atcoder13static_modintILi754974721ELPv0EEENS_9allocatorIS4_EEE16__destroy_vectorclB8ue170006Ev, symObjAddr: 0x5320, symBinAddr: 0x10000603C, symSize: 0x90 }
  - { offsetInCU: 0x1D56F, offset: 0x1D56F, size: 0x8, addend: 0x0, symName: __ZNSt3__16vectorIN7atcoder13static_modintILi754974721ELPv0EEENS_9allocatorIS4_EEE7__clearB8ue170006Ev, symObjAddr: 0x53B0, symBinAddr: 0x1000060CC, symSize: 0x28 }
  - { offsetInCU: 0x1D595, offset: 0x1D595, size: 0x8, addend: 0x0, symName: __ZNKSt3__16vectorIN7atcoder13static_modintILi754974721ELPv0EEENS_9allocatorIS4_EEE17__annotate_deleteB8ue170006Ev, symObjAddr: 0x53D8, symBinAddr: 0x1000060F4, symSize: 0xB8 }
  - { offsetInCU: 0x1D5BB, offset: 0x1D5BB, size: 0x8, addend: 0x0, symName: __ZNSt3__116allocator_traitsINS_9allocatorIN7atcoder13static_modintILi754974721ELPv0EEEEEE10deallocateB8ue170006ERS6_PS5_m, symObjAddr: 0x5490, symBinAddr: 0x1000061AC, symSize: 0x34 }
  - { offsetInCU: 0x1D5FD, offset: 0x1D5FD, size: 0x8, addend: 0x0, symName: __ZNSt3__16vectorIN7atcoder13static_modintILi754974721ELPv0EEENS_9allocatorIS4_EEE22__base_destruct_at_endB8ue170006EPS4_, symObjAddr: 0x54C4, symBinAddr: 0x1000061E0, symSize: 0x8C }
  - { offsetInCU: 0x1D641, offset: 0x1D641, size: 0x8, addend: 0x0, symName: __ZNSt3__116allocator_traitsINS_9allocatorIN7atcoder13static_modintILi754974721ELPv0EEEEEE7destroyB8ue170006IS5_vEEvRS6_PT_, symObjAddr: 0x5550, symBinAddr: 0x10000626C, symSize: 0x2C }
  - { offsetInCU: 0x1D67E, offset: 0x1D67E, size: 0x8, addend: 0x0, symName: __ZNSt3__19allocatorIN7atcoder13static_modintILi754974721ELPv0EEEE7destroyB8ue170006EPS4_, symObjAddr: 0x557C, symBinAddr: 0x100006298, symSize: 0x14 }
  - { offsetInCU: 0x1D6B2, offset: 0x1D6B2, size: 0x8, addend: 0x0, symName: __ZNKSt3__16vectorIN7atcoder13static_modintILi754974721ELPv0EEENS_9allocatorIS4_EEE4sizeB8ue170006Ev, symObjAddr: 0x5590, symBinAddr: 0x1000062AC, symSize: 0x28 }
  - { offsetInCU: 0x1D6D8, offset: 0x1D6D8, size: 0x8, addend: 0x0, symName: __ZNSt3__19allocatorIN7atcoder13static_modintILi754974721ELPv0EEEE10deallocateB8ue170006EPS4_m, symObjAddr: 0x55B8, symBinAddr: 0x1000062D4, symSize: 0x40 }
  - { offsetInCU: 0x1D71A, offset: 0x1D71A, size: 0x8, addend: 0x0, symName: __ZN7atcoder13static_modintILi754974721ELPv0EEC2IxLS1_0EEET_, symObjAddr: 0x5700, symBinAddr: 0x10000641C, symSize: 0x8C }
  - { offsetInCU: 0x1D77D, offset: 0x1D77D, size: 0x8, addend: 0x0, symName: __ZN7atcoder13static_modintILi754974721ELPv0EE4umodEv, symObjAddr: 0x578C, symBinAddr: 0x1000064A8, symSize: 0xC }
  - { offsetInCU: 0x1D791, offset: 0x1D791, size: 0x8, addend: 0x0, symName: __ZNSt3__16vectorIN7atcoder13static_modintILi754974721ELPv0EEENS_9allocatorIS4_EEEC1B8ue170006Ev, symObjAddr: 0x5798, symBinAddr: 0x1000064B4, symSize: 0x2C }
  - { offsetInCU: 0x1D7BB, offset: 0x1D7BB, size: 0x8, addend: 0x0, symName: __ZN7atcoder13static_modintILi754974721ELPv0EEpLERKS2_, symObjAddr: 0x589C, symBinAddr: 0x1000065B8, symSize: 0x78 }
  - { offsetInCU: 0x1D7EF, offset: 0x1D7EF, size: 0x8, addend: 0x0, symName: __ZNSt3__16vectorIN7atcoder13static_modintILi754974721ELPv0EEENS_9allocatorIS4_EEE6resizeEm, symObjAddr: 0x5914, symBinAddr: 0x100006630, symSize: 0x94 }
  - { offsetInCU: 0x1D835, offset: 0x1D835, size: 0x8, addend: 0x0, symName: __ZN7atcoder13static_modintILi754974721ELPv0EEmLERKS2_, symObjAddr: 0x5EC0, symBinAddr: 0x100006BDC, symSize: 0x78 }
  - { offsetInCU: 0x1D877, offset: 0x1D877, size: 0x8, addend: 0x0, symName: __ZN7atcoder13static_modintILi754974721ELPv0EEC1IiLS1_0EEET_, symObjAddr: 0x6484, symBinAddr: 0x1000071A0, symSize: 0x34 }
  - { offsetInCU: 0x1D8BE, offset: 0x1D8BE, size: 0x8, addend: 0x0, symName: __ZNK7atcoder13static_modintILi754974721ELPv0EE3invEv, symObjAddr: 0x64B8, symBinAddr: 0x1000071D4, symSize: 0x7C }
  - { offsetInCU: 0x1D8E4, offset: 0x1D8E4, size: 0x8, addend: 0x0, symName: __ZNSt3__16vectorIN7atcoder13static_modintILi754974721ELPv0EEENS_9allocatorIS4_EEEC2B8ue170006Ev, symObjAddr: 0x6534, symBinAddr: 0x100007250, symSize: 0x4C }
  - { offsetInCU: 0x1D90E, offset: 0x1D90E, size: 0x8, addend: 0x0, symName: __ZNKSt3__16__lessIvvEclB8ue170006IiiEEbRKT_RKT0_, symObjAddr: 0x65D4, symBinAddr: 0x1000072F0, symSize: 0x34 }
  - { offsetInCU: 0x1D962, offset: 0x1D962, size: 0x8, addend: 0x0, symName: __ZNSt3__16vectorIN7atcoder13static_modintILi754974721ELPv0EEENS_9allocatorIS4_EEE4swapERS7_, symObjAddr: 0x6608, symBinAddr: 0x100007324, symSize: 0x84 }
  - { offsetInCU: 0x1D999, offset: 0x1D999, size: 0x8, addend: 0x0, symName: __ZNSt3__16vectorIN7atcoder13static_modintILi754974721ELPv0EEENS_9allocatorIS4_EEE8__appendEm, symObjAddr: 0x66DC, symBinAddr: 0x1000073F8, symSize: 0x108 }
  - { offsetInCU: 0x1D9F4, offset: 0x1D9F4, size: 0x8, addend: 0x0, symName: __ZNSt3__16vectorIN7atcoder13static_modintILi754974721ELPv0EEENS_9allocatorIS4_EEE17__destruct_at_endB8ue170006EPS4_, symObjAddr: 0x67E4, symBinAddr: 0x100007500, symSize: 0x4C }
  - { offsetInCU: 0x1DA38, offset: 0x1DA38, size: 0x8, addend: 0x0, symName: __ZNKSt3__16vectorIN7atcoder13static_modintILi754974721ELPv0EEENS_9allocatorIS4_EEE11__recommendB8ue170006Em, symObjAddr: 0x6830, symBinAddr: 0x10000754C, symSize: 0xB4 }
  - { offsetInCU: 0x1DA8D, offset: 0x1DA8D, size: 0x8, addend: 0x0, symName: __ZNSt3__114__split_bufferIN7atcoder13static_modintILi754974721ELPv0EEERNS_9allocatorIS4_EEEC1EmmS7_, symObjAddr: 0x68E4, symBinAddr: 0x100007600, symSize: 0x44 }
  - { offsetInCU: 0x1DAE3, offset: 0x1DAE3, size: 0x8, addend: 0x0, symName: __ZNSt3__114__split_bufferIN7atcoder13static_modintILi754974721ELPv0EEERNS_9allocatorIS4_EEE18__construct_at_endEm, symObjAddr: 0x6928, symBinAddr: 0x100007644, symSize: 0xB4 }
  - { offsetInCU: 0x1DB28, offset: 0x1DB28, size: 0x8, addend: 0x0, symName: __ZNSt3__114__split_bufferIN7atcoder13static_modintILi754974721ELPv0EEERNS_9allocatorIS4_EEED1Ev, symObjAddr: 0x6AEC, symBinAddr: 0x100007808, symSize: 0x2C }
  - { offsetInCU: 0x1DB54, offset: 0x1DB54, size: 0x8, addend: 0x0, symName: __ZNSt3__114__split_bufferIN7atcoder13static_modintILi754974721ELPv0EEERNS_9allocatorIS4_EEEC2EmmS7_, symObjAddr: 0x6B98, symBinAddr: 0x1000078B4, symSize: 0xD4 }
  - { offsetInCU: 0x1DBC7, offset: 0x1DBC7, size: 0x8, addend: 0x0, symName: __ZNSt3__117__compressed_pairIPN7atcoder13static_modintILi754974721ELPv0EEERNS_9allocatorIS4_EEEC1B8ue170006IDnS8_EEOT_OT0_, symObjAddr: 0x6C6C, symBinAddr: 0x100007988, symSize: 0x3C }
  - { offsetInCU: 0x1DC1F, offset: 0x1DC1F, size: 0x8, addend: 0x0, symName: __ZNSt3__114__split_bufferIN7atcoder13static_modintILi754974721ELPv0EEERNS_9allocatorIS4_EEE7__allocB8ue170006Ev, symObjAddr: 0x6CA8, symBinAddr: 0x1000079C4, symSize: 0x28 }
  - { offsetInCU: 0x1DC45, offset: 0x1DC45, size: 0x8, addend: 0x0, symName: __ZNSt3__114__split_bufferIN7atcoder13static_modintILi754974721ELPv0EEERNS_9allocatorIS4_EEE9__end_capB8ue170006Ev, symObjAddr: 0x6CD0, symBinAddr: 0x1000079EC, symSize: 0x28 }
  - { offsetInCU: 0x1DC6B, offset: 0x1DC6B, size: 0x8, addend: 0x0, symName: __ZNSt3__117__compressed_pairIPN7atcoder13static_modintILi754974721ELPv0EEERNS_9allocatorIS4_EEEC2B8ue170006IDnS8_EEOT_OT0_, symObjAddr: 0x6CF8, symBinAddr: 0x100007A14, symSize: 0x48 }
  - { offsetInCU: 0x1DCC3, offset: 0x1DCC3, size: 0x8, addend: 0x0, symName: __ZNSt3__122__compressed_pair_elemIRNS_9allocatorIN7atcoder13static_modintILi754974721ELPv0EEEEELi1ELb0EEC2B8ue170006IS7_vEEOT_, symObjAddr: 0x6D40, symBinAddr: 0x100007A5C, symSize: 0x20 }
  - { offsetInCU: 0x1DD05, offset: 0x1DD05, size: 0x8, addend: 0x0, symName: __ZNSt3__117__compressed_pairIPN7atcoder13static_modintILi754974721ELPv0EEERNS_9allocatorIS4_EEE6secondB8ue170006Ev, symObjAddr: 0x6D60, symBinAddr: 0x100007A7C, symSize: 0x28 }
  - { offsetInCU: 0x1DD2B, offset: 0x1DD2B, size: 0x8, addend: 0x0, symName: __ZNSt3__122__compressed_pair_elemIRNS_9allocatorIN7atcoder13static_modintILi754974721ELPv0EEEEELi1ELb0EE5__getB8ue170006Ev, symObjAddr: 0x6D88, symBinAddr: 0x100007AA4, symSize: 0x18 }
  - { offsetInCU: 0x1DD51, offset: 0x1DD51, size: 0x8, addend: 0x0, symName: __ZNSt3__117__compressed_pairIPN7atcoder13static_modintILi754974721ELPv0EEERNS_9allocatorIS4_EEE5firstB8ue170006Ev, symObjAddr: 0x6DA0, symBinAddr: 0x100007ABC, symSize: 0x24 }
  - { offsetInCU: 0x1DD81, offset: 0x1DD81, size: 0x8, addend: 0x0, symName: __ZNSt3__114__split_bufferIN7atcoder13static_modintILi754974721ELPv0EEERNS_9allocatorIS4_EEE21_ConstructTransactionC1B8ue170006EPPS4_m, symObjAddr: 0x6DC4, symBinAddr: 0x100007AE0, symSize: 0x3C }
  - { offsetInCU: 0x1DDC7, offset: 0x1DDC7, size: 0x8, addend: 0x0, symName: __ZNSt3__114__split_bufferIN7atcoder13static_modintILi754974721ELPv0EEERNS_9allocatorIS4_EEE21_ConstructTransactionD1B8ue170006Ev, symObjAddr: 0x6E00, symBinAddr: 0x100007B1C, symSize: 0x2C }
  - { offsetInCU: 0x1DDF1, offset: 0x1DDF1, size: 0x8, addend: 0x0, symName: __ZNSt3__114__split_bufferIN7atcoder13static_modintILi754974721ELPv0EEERNS_9allocatorIS4_EEE21_ConstructTransactionC2B8ue170006EPPS4_m, symObjAddr: 0x6E2C, symBinAddr: 0x100007B48, symSize: 0x44 }
  - { offsetInCU: 0x1DE37, offset: 0x1DE37, size: 0x8, addend: 0x0, symName: __ZNSt3__114__split_bufferIN7atcoder13static_modintILi754974721ELPv0EEERNS_9allocatorIS4_EEE21_ConstructTransactionD2B8ue170006Ev, symObjAddr: 0x6E70, symBinAddr: 0x100007B8C, symSize: 0x20 }
  - { offsetInCU: 0x1DE61, offset: 0x1DE61, size: 0x8, addend: 0x0, symName: __ZNSt3__116reverse_iteratorIPN7atcoder13static_modintILi754974721ELPv0EEEEC1B8ue170006ES5_, symObjAddr: 0x6F08, symBinAddr: 0x100007C24, symSize: 0x34 }
  - { offsetInCU: 0x1DE99, offset: 0x1DE99, size: 0x8, addend: 0x0, symName: __ZNKSt3__116reverse_iteratorIPN7atcoder13static_modintILi754974721ELPv0EEEE4baseB8ue170006Ev, symObjAddr: 0x6F3C, symBinAddr: 0x100007C58, symSize: 0x18 }
  - { offsetInCU: 0x1DEE3, offset: 0x1DEE3, size: 0x8, addend: 0x0, symName: __ZNKSt3__111__move_loopINS_17_ClassicAlgPolicyEEclB8ue170006INS_16reverse_iteratorIPN7atcoder13static_modintILi754974721ELPv0EEEEESA_SA_EENS_4pairIT_T1_EESC_T0_SD_, symObjAddr: 0x7244, symBinAddr: 0x100007F60, symSize: 0xA0 }
  - { offsetInCU: 0x1DF54, offset: 0x1DF54, size: 0x8, addend: 0x0, symName: __ZNSt3__18_IterOpsINS_17_ClassicAlgPolicyEE11__iter_moveB8ue170006IRNS_16reverse_iteratorIPN7atcoder13static_modintILi754974721ELPv0EEEEEEENS_9enable_ifIXsr12is_referenceIDTdeclsr3stdE7declvalIRT_EEEEE5valueEDTclsr3stdE4movedeclsr3stdE7declvalISE_EEEEE4typeEOSD_, symObjAddr: 0x7478, symBinAddr: 0x100008194, symSize: 0x28 }
  - { offsetInCU: 0x1DF80, offset: 0x1DF80, size: 0x8, addend: 0x0, symName: __ZNKSt3__116reverse_iteratorIPN7atcoder13static_modintILi754974721ELPv0EEEEdeB8ue170006Ev, symObjAddr: 0x74A0, symBinAddr: 0x1000081BC, symSize: 0x28 }
  - { offsetInCU: 0x1DFB4, offset: 0x1DFB4, size: 0x8, addend: 0x0, symName: __ZNSt3__116reverse_iteratorIPN7atcoder13static_modintILi754974721ELPv0EEEEppB8ue170006Ev, symObjAddr: 0x74C8, symBinAddr: 0x1000081E4, symSize: 0x20 }
  - { offsetInCU: 0x1DFDA, offset: 0x1DFDA, size: 0x8, addend: 0x0, symName: __ZNSt3__18_IterOpsINS_17_ClassicAlgPolicyEE25__validate_iter_referenceB8ue170006IRNS_16reverse_iteratorIPN7atcoder13static_modintILi754974721ELPv0EEEEEEEvv, symObjAddr: 0x74E8, symBinAddr: 0x100008204, symSize: 0x4 }
  - { offsetInCU: 0x1DFF8, offset: 0x1DFF8, size: 0x8, addend: 0x0, symName: __ZNSt3__118__unwrap_iter_implINS_16reverse_iteratorIPN7atcoder13static_modintILi754974721ELPv0EEEEELb0EE8__unwrapB8ue170006ES7_, symObjAddr: 0x74EC, symBinAddr: 0x100008208, symSize: 0x24 }
  - { offsetInCU: 0x1E021, offset: 0x1E021, size: 0x8, addend: 0x0, symName: __ZNSt3__14pairINS_16reverse_iteratorIPN7atcoder13static_modintILi754974721ELPv0EEEEES7_EC1B8ue170006IS7_S7_LS4_0EEEOT_OT0_, symObjAddr: 0x7510, symBinAddr: 0x10000822C, symSize: 0x3C }
  - { offsetInCU: 0x1E07F, offset: 0x1E07F, size: 0x8, addend: 0x0, symName: __ZNSt3__14pairINS_16reverse_iteratorIPN7atcoder13static_modintILi754974721ELPv0EEEEES7_EC2B8ue170006IS7_S7_LS4_0EEEOT_OT0_, symObjAddr: 0x754C, symBinAddr: 0x100008268, symSize: 0x34 }
  - { offsetInCU: 0x1E0DD, offset: 0x1E0DD, size: 0x8, addend: 0x0, symName: __ZNSt3__118__unwrap_iter_implINS_16reverse_iteratorIPN7atcoder13static_modintILi754974721ELPv0EEEEELb0EE8__rewrapB8ue170006ES7_S7_, symObjAddr: 0x7580, symBinAddr: 0x10000829C, symSize: 0x2C }
  - { offsetInCU: 0x1E10A, offset: 0x1E10A, size: 0x8, addend: 0x0, symName: __ZNSt3__116reverse_iteratorIPN7atcoder13static_modintILi754974721ELPv0EEEEC2B8ue170006ES5_, symObjAddr: 0x75AC, symBinAddr: 0x1000082C8, symSize: 0x28 }
  - { offsetInCU: 0x1E142, offset: 0x1E142, size: 0x8, addend: 0x0, symName: __ZNSt3__114__split_bufferIN7atcoder13static_modintILi754974721ELPv0EEERNS_9allocatorIS4_EEED2Ev, symObjAddr: 0x75D4, symBinAddr: 0x1000082F0, symSize: 0x8C }
  - { offsetInCU: 0x1E16E, offset: 0x1E16E, size: 0x8, addend: 0x0, symName: __ZNSt3__114__split_bufferIN7atcoder13static_modintILi754974721ELPv0EEERNS_9allocatorIS4_EEE5clearB8ue170006Ev, symObjAddr: 0x7660, symBinAddr: 0x10000837C, symSize: 0x28 }
  - { offsetInCU: 0x1E194, offset: 0x1E194, size: 0x8, addend: 0x0, symName: __ZNKSt3__114__split_bufferIN7atcoder13static_modintILi754974721ELPv0EEERNS_9allocatorIS4_EEE8capacityB8ue170006Ev, symObjAddr: 0x7688, symBinAddr: 0x1000083A4, symSize: 0x40 }
  - { offsetInCU: 0x1E1BA, offset: 0x1E1BA, size: 0x8, addend: 0x0, symName: __ZNSt3__114__split_bufferIN7atcoder13static_modintILi754974721ELPv0EEERNS_9allocatorIS4_EEE17__destruct_at_endB8ue170006EPS4_, symObjAddr: 0x76C8, symBinAddr: 0x1000083E4, symSize: 0x2C }
  - { offsetInCU: 0x1E1EE, offset: 0x1E1EE, size: 0x8, addend: 0x0, symName: __ZNSt3__114__split_bufferIN7atcoder13static_modintILi754974721ELPv0EEERNS_9allocatorIS4_EEE17__destruct_at_endB8ue170006EPS4_NS_17integral_constantIbLb0EEE, symObjAddr: 0x76F4, symBinAddr: 0x100008410, symSize: 0x80 }
  - { offsetInCU: 0x1E22E, offset: 0x1E22E, size: 0x8, addend: 0x0, symName: __ZNKSt3__114__split_bufferIN7atcoder13static_modintILi754974721ELPv0EEERNS_9allocatorIS4_EEE9__end_capB8ue170006Ev, symObjAddr: 0x7774, symBinAddr: 0x100008490, symSize: 0x28 }
  - { offsetInCU: 0x1E254, offset: 0x1E254, size: 0x8, addend: 0x0, symName: __ZNKSt3__117__compressed_pairIPN7atcoder13static_modintILi754974721ELPv0EEERNS_9allocatorIS4_EEE5firstB8ue170006Ev, symObjAddr: 0x779C, symBinAddr: 0x1000084B8, symSize: 0x24 }
  - { offsetInCU: 0x1E27A, offset: 0x1E27A, size: 0x8, addend: 0x0, symName: __ZNKSt3__16vectorIN7atcoder13static_modintILi754974721ELPv0EEENS_9allocatorIS4_EEE17__annotate_shrinkB8ue170006Em, symObjAddr: 0x77C0, symBinAddr: 0x1000084DC, symSize: 0xB4 }
  - { offsetInCU: 0x1E2AF, offset: 0x1E2AF, size: 0x8, addend: 0x0, symName: __ZN7atcoder13static_modintILi754974721ELPv0EE3modEv, symObjAddr: 0x7874, symBinAddr: 0x100008590, symSize: 0xC }
  - { offsetInCU: 0x1E2C3, offset: 0x1E2C3, size: 0x8, addend: 0x0, symName: __ZNK7atcoder13static_modintILi754974721ELPv0EE3powEx, symObjAddr: 0x7880, symBinAddr: 0x10000859C, symSize: 0xD8 }
  - { offsetInCU: 0x1E313, offset: 0x1E313, size: 0x8, addend: 0x0, symName: __ZN7atcoder13static_modintILi754974721ELPv0EEmIERKS2_, symObjAddr: 0x79E0, symBinAddr: 0x1000086FC, symSize: 0x78 }
  - { offsetInCU: 0x1E347, offset: 0x1E347, size: 0x8, addend: 0x0, symName: __ZN7atcoder13static_modintILi754974721ELPv0EEC1IyLS1_0EEET_, symObjAddr: 0x7A58, symBinAddr: 0x100008774, symSize: 0x34 }
  - { offsetInCU: 0x1E38E, offset: 0x1E38E, size: 0x8, addend: 0x0, symName: __ZN7atcoder13static_modintILi754974721ELPv0EEC2IyLS1_0EEET_, symObjAddr: 0x7A8C, symBinAddr: 0x1000087A8, symSize: 0x58 }
  - { offsetInCU: 0x1E3D5, offset: 0x1E3D5, size: 0x8, addend: 0x0, symName: __ZN7atcoder13static_modintILi754974721ELPv0EEC2IiLS1_0EEET_, symObjAddr: 0x7AE4, symBinAddr: 0x100008800, symSize: 0x8C }
  - { offsetInCU: 0x1E438, offset: 0x1E438, size: 0x8, addend: 0x0, symName: __ZNSt3__16vectorIN7atcoder13static_modintILi754974721ELPv0EEENS_9allocatorIS4_EEEC2B8ue170006EOS7_, symObjAddr: 0x7B70, symBinAddr: 0x10000888C, symSize: 0xC4 }
  - { offsetInCU: 0x1E479, offset: 0x1E479, size: 0x8, addend: 0x0, symName: __ZNSt3__117__compressed_pairIPN7atcoder13static_modintILi754974721ELPv0EEENS_9allocatorIS4_EEEC1B8ue170006IDnS7_EEOT_OT0_, symObjAddr: 0x7C34, symBinAddr: 0x100008950, symSize: 0x3C }
  - { offsetInCU: 0x1E4D1, offset: 0x1E4D1, size: 0x8, addend: 0x0, symName: __ZNSt3__117__compressed_pairIPN7atcoder13static_modintILi754974721ELPv0EEENS_9allocatorIS4_EEEC2B8ue170006IDnS7_EEOT_OT0_, symObjAddr: 0x7C70, symBinAddr: 0x10000898C, symSize: 0x44 }
  - { offsetInCU: 0x1E529, offset: 0x1E529, size: 0x8, addend: 0x0, symName: __ZNSt3__122__compressed_pair_elemINS_9allocatorIN7atcoder13static_modintILi754974721ELPv0EEEEELi1ELb1EEC2B8ue170006IS6_vEEOT_, symObjAddr: 0x7CB4, symBinAddr: 0x1000089D0, symSize: 0x18 }
  - { offsetInCU: 0x1E56B, offset: 0x1E56B, size: 0x8, addend: 0x0, symName: __ZNSt3__16vectorIN7atcoder13static_modintILi754974721ELPv0EEENS_9allocatorIS4_EEED2B8ue170006Ev, symObjAddr: 0x7CCC, symBinAddr: 0x1000089E8, symSize: 0x40 }
  - { offsetInCU: 0x1E595, offset: 0x1E595, size: 0x8, addend: 0x0, symName: __ZNSt3__16vectorIxNS_9allocatorIxEEED2B8ue170006Ev, symObjAddr: 0x7D0C, symBinAddr: 0x100008A28, symSize: 0x44 }
  - { offsetInCU: 0x1E5BF, offset: 0x1E5BF, size: 0x8, addend: 0x0, symName: __ZNSt3__16vectorIxNS_9allocatorIxEEE16__destroy_vectorC1B8ue170006ERS3_, symObjAddr: 0x7D50, symBinAddr: 0x100008A6C, symSize: 0x34 }
  - { offsetInCU: 0x1E5F8, offset: 0x1E5F8, size: 0x8, addend: 0x0, symName: __ZNSt3__16vectorIxNS_9allocatorIxEEE16__destroy_vectorclB8ue170006Ev, symObjAddr: 0x7D84, symBinAddr: 0x100008AA0, symSize: 0x90 }
  - { offsetInCU: 0x1E61E, offset: 0x1E61E, size: 0x8, addend: 0x0, symName: __ZNSt3__16vectorIxNS_9allocatorIxEEE16__destroy_vectorC2B8ue170006ERS3_, symObjAddr: 0x7E14, symBinAddr: 0x100008B30, symSize: 0x20 }
  - { offsetInCU: 0x1E657, offset: 0x1E657, size: 0x8, addend: 0x0, symName: __ZNSt3__16vectorIxNS_9allocatorIxEEE7__clearB8ue170006Ev, symObjAddr: 0x7E34, symBinAddr: 0x100008B50, symSize: 0x28 }
  - { offsetInCU: 0x1E67D, offset: 0x1E67D, size: 0x8, addend: 0x0, symName: __ZNKSt3__16vectorIxNS_9allocatorIxEEE17__annotate_deleteB8ue170006Ev, symObjAddr: 0x7E5C, symBinAddr: 0x100008B78, symSize: 0xB8 }
  - { offsetInCU: 0x1E6A3, offset: 0x1E6A3, size: 0x8, addend: 0x0, symName: __ZNSt3__116allocator_traitsINS_9allocatorIxEEE10deallocateB8ue170006ERS2_Pxm, symObjAddr: 0x7F14, symBinAddr: 0x100008C30, symSize: 0x34 }
  - { offsetInCU: 0x1E6E5, offset: 0x1E6E5, size: 0x8, addend: 0x0, symName: __ZNSt3__16vectorIxNS_9allocatorIxEEE7__allocB8ue170006Ev, symObjAddr: 0x7F48, symBinAddr: 0x100008C64, symSize: 0x28 }
  - { offsetInCU: 0x1E70B, offset: 0x1E70B, size: 0x8, addend: 0x0, symName: __ZNKSt3__16vectorIxNS_9allocatorIxEEE8capacityB8ue170006Ev, symObjAddr: 0x7F70, symBinAddr: 0x100008C8C, symSize: 0x40 }
  - { offsetInCU: 0x1E731, offset: 0x1E731, size: 0x8, addend: 0x0, symName: __ZNSt3__16vectorIxNS_9allocatorIxEEE22__base_destruct_at_endB8ue170006EPx, symObjAddr: 0x7FB0, symBinAddr: 0x100008CCC, symSize: 0x8C }
  - { offsetInCU: 0x1E775, offset: 0x1E775, size: 0x8, addend: 0x0, symName: __ZNSt3__116allocator_traitsINS_9allocatorIxEEE7destroyB8ue170006IxvEEvRS2_PT_, symObjAddr: 0x803C, symBinAddr: 0x100008D58, symSize: 0x2C }
  - { offsetInCU: 0x1E7B2, offset: 0x1E7B2, size: 0x8, addend: 0x0, symName: __ZNSt3__19allocatorIxE7destroyB8ue170006EPx, symObjAddr: 0x807C, symBinAddr: 0x100008D98, symSize: 0x14 }
  - { offsetInCU: 0x1E7E6, offset: 0x1E7E6, size: 0x8, addend: 0x0, symName: __ZNKSt3__16vectorIxNS_9allocatorIxEEE31__annotate_contiguous_containerB8ue170006EPKvS5_S5_S5_, symObjAddr: 0x8090, symBinAddr: 0x100008DAC, symSize: 0x20 }
  - { offsetInCU: 0x1E838, offset: 0x1E838, size: 0x8, addend: 0x0, symName: __ZNKSt3__16vectorIxNS_9allocatorIxEEE4dataB8ue170006Ev, symObjAddr: 0x80B0, symBinAddr: 0x100008DCC, symSize: 0x28 }
  - { offsetInCU: 0x1E85E, offset: 0x1E85E, size: 0x8, addend: 0x0, symName: __ZNSt3__19allocatorIxE10deallocateB8ue170006EPxm, symObjAddr: 0x80D8, symBinAddr: 0x100008DF4, symSize: 0x40 }
  - { offsetInCU: 0x1E8A0, offset: 0x1E8A0, size: 0x8, addend: 0x0, symName: __ZNSt3__117__compressed_pairIPxNS_9allocatorIxEEE6secondB8ue170006Ev, symObjAddr: 0x8118, symBinAddr: 0x100008E34, symSize: 0x24 }
  - { offsetInCU: 0x1E8C6, offset: 0x1E8C6, size: 0x8, addend: 0x0, symName: __ZNSt3__122__compressed_pair_elemINS_9allocatorIxEELi1ELb1EE5__getB8ue170006Ev, symObjAddr: 0x813C, symBinAddr: 0x100008E58, symSize: 0x14 }
  - { offsetInCU: 0x1E8EC, offset: 0x1E8EC, size: 0x8, addend: 0x0, symName: __ZNKSt3__16vectorIxNS_9allocatorIxEEE9__end_capB8ue170006Ev, symObjAddr: 0x8150, symBinAddr: 0x100008E6C, symSize: 0x28 }
  - { offsetInCU: 0x1E912, offset: 0x1E912, size: 0x8, addend: 0x0, symName: __ZNKSt3__117__compressed_pairIPxNS_9allocatorIxEEE5firstB8ue170006Ev, symObjAddr: 0x8178, symBinAddr: 0x100008E94, symSize: 0x24 }
  - { offsetInCU: 0x1E938, offset: 0x1E938, size: 0x8, addend: 0x0, symName: __ZNKSt3__122__compressed_pair_elemIPxLi0ELb0EE5__getB8ue170006Ev, symObjAddr: 0x819C, symBinAddr: 0x100008EB8, symSize: 0x14 }
  - { offsetInCU: 0x1E95E, offset: 0x1E95E, size: 0x8, addend: 0x0, symName: __ZNSt3__16vectorIN7atcoder13static_modintILi167772161ELPv0EEENS_9allocatorIS4_EEEC1Em, symObjAddr: 0x81B0, symBinAddr: 0x100008ECC, symSize: 0x34 }
  - { offsetInCU: 0x1E999, offset: 0x1E999, size: 0x8, addend: 0x0, symName: __ZN7atcoder13static_modintILi167772161ELPv0EEC1IxLS1_0EEET_, symObjAddr: 0x81E4, symBinAddr: 0x100008F00, symSize: 0x34 }
  - { offsetInCU: 0x1E9E0, offset: 0x1E9E0, size: 0x8, addend: 0x0, symName: __ZNSt3__16vectorIN7atcoder13static_modintILi167772161ELPv0EEENS_9allocatorIS4_EEEixB8ue170006Em, symObjAddr: 0x8218, symBinAddr: 0x100008F34, symSize: 0x24 }
  - { offsetInCU: 0x1EA17, offset: 0x1EA17, size: 0x8, addend: 0x0, symName: __ZNSt3__16vectorIN7atcoder13static_modintILi167772161ELPv0EEENS_9allocatorIS4_EEEC1B8ue170006EOS7_, symObjAddr: 0x85C0, symBinAddr: 0x1000092DC, symSize: 0x34 }
  - { offsetInCU: 0x1EA52, offset: 0x1EA52, size: 0x8, addend: 0x0, symName: __ZNSt3__16vectorIN7atcoder13static_modintILi167772161ELPv0EEENS_9allocatorIS4_EEED1B8ue170006Ev, symObjAddr: 0x85F4, symBinAddr: 0x100009310, symSize: 0x2C }
  - { offsetInCU: 0x1EA7C, offset: 0x1EA7C, size: 0x8, addend: 0x0, symName: __ZNK7atcoder13static_modintILi167772161ELPv0EE3valEv, symObjAddr: 0x8620, symBinAddr: 0x10000933C, symSize: 0x18 }
  - { offsetInCU: 0x1EAA2, offset: 0x1EAA2, size: 0x8, addend: 0x0, symName: __ZNSt3__16vectorIN7atcoder13static_modintILi167772161ELPv0EEENS_9allocatorIS4_EEEC2Em, symObjAddr: 0x8638, symBinAddr: 0x100009354, symSize: 0xD4 }
  - { offsetInCU: 0x1EAF2, offset: 0x1EAF2, size: 0x8, addend: 0x0, symName: __ZNSt3__117__compressed_pairIPN7atcoder13static_modintILi167772161ELPv0EEENS_9allocatorIS4_EEEC1B8ue170006IDnNS_18__default_init_tagEEEOT_OT0_, symObjAddr: 0x870C, symBinAddr: 0x100009428, symSize: 0x3C }
  - { offsetInCU: 0x1EB4A, offset: 0x1EB4A, size: 0x8, addend: 0x0, symName: __ZNSt3__16vectorIN7atcoder13static_modintILi167772161ELPv0EEENS_9allocatorIS4_EEE16__destroy_vectorC1B8ue170006ERS7_, symObjAddr: 0x8788, symBinAddr: 0x1000094A4, symSize: 0x34 }
  - { offsetInCU: 0x1EB83, offset: 0x1EB83, size: 0x8, addend: 0x0, symName: __ZNSt3__16vectorIN7atcoder13static_modintILi167772161ELPv0EEENS_9allocatorIS4_EEE11__vallocateB8ue170006Em, symObjAddr: 0x87BC, symBinAddr: 0x1000094D8, symSize: 0xAC }
  - { offsetInCU: 0x1EBC7, offset: 0x1EBC7, size: 0x8, addend: 0x0, symName: __ZNSt3__16vectorIN7atcoder13static_modintILi167772161ELPv0EEENS_9allocatorIS4_EEE18__construct_at_endEm, symObjAddr: 0x8868, symBinAddr: 0x100009584, symSize: 0xC8 }
  - { offsetInCU: 0x1EC39, offset: 0x1EC39, size: 0x8, addend: 0x0, symName: __ZNSt3__128__exception_guard_exceptionsINS_6vectorIN7atcoder13static_modintILi167772161ELPv0EEENS_9allocatorIS5_EEE16__destroy_vectorEE10__completeB8ue170006Ev, symObjAddr: 0x8930, symBinAddr: 0x10000964C, symSize: 0x1C }
  - { offsetInCU: 0x1EC5F, offset: 0x1EC5F, size: 0x8, addend: 0x0, symName: __ZNSt3__128__exception_guard_exceptionsINS_6vectorIN7atcoder13static_modintILi167772161ELPv0EEENS_9allocatorIS5_EEE16__destroy_vectorEED1B8ue170006Ev, symObjAddr: 0x894C, symBinAddr: 0x100009668, symSize: 0x2C }
  - { offsetInCU: 0x1EC89, offset: 0x1EC89, size: 0x8, addend: 0x0, symName: __ZNSt3__117__compressed_pairIPN7atcoder13static_modintILi167772161ELPv0EEENS_9allocatorIS4_EEEC2B8ue170006IDnNS_18__default_init_tagEEEOT_OT0_, symObjAddr: 0x8978, symBinAddr: 0x100009694, symSize: 0x40 }
  - { offsetInCU: 0x1ECE1, offset: 0x1ECE1, size: 0x8, addend: 0x0, symName: __ZNSt3__122__compressed_pair_elemIPN7atcoder13static_modintILi167772161ELPv0EEELi0ELb0EEC2B8ue170006IDnvEEOT_, symObjAddr: 0x89B8, symBinAddr: 0x1000096D4, symSize: 0x1C }
  - { offsetInCU: 0x1ED23, offset: 0x1ED23, size: 0x8, addend: 0x0, symName: __ZNSt3__122__compressed_pair_elemINS_9allocatorIN7atcoder13static_modintILi167772161ELPv0EEEEELi1ELb1EEC2B8ue170006ENS_18__default_init_tagE, symObjAddr: 0x89D4, symBinAddr: 0x1000096F0, symSize: 0x2C }
  - { offsetInCU: 0x1ED57, offset: 0x1ED57, size: 0x8, addend: 0x0, symName: __ZNSt3__19allocatorIN7atcoder13static_modintILi167772161ELPv0EEEEC2B8ue170006Ev, symObjAddr: 0x8A00, symBinAddr: 0x10000971C, symSize: 0x2C }
  - { offsetInCU: 0x1ED81, offset: 0x1ED81, size: 0x8, addend: 0x0, symName: __ZNSt3__116__non_trivial_ifILb1ENS_9allocatorIN7atcoder13static_modintILi167772161ELPv0EEEEEEC2B8ue170006Ev, symObjAddr: 0x8A2C, symBinAddr: 0x100009748, symSize: 0x14 }
  - { offsetInCU: 0x1EDAB, offset: 0x1EDAB, size: 0x8, addend: 0x0, symName: __ZNSt3__128__exception_guard_exceptionsINS_6vectorIN7atcoder13static_modintILi167772161ELPv0EEENS_9allocatorIS5_EEE16__destroy_vectorEEC1B8ue170006ES9_, symObjAddr: 0x8A40, symBinAddr: 0x10000975C, symSize: 0x34 }
  - { offsetInCU: 0x1EDE3, offset: 0x1EDE3, size: 0x8, addend: 0x0, symName: __ZNSt3__128__exception_guard_exceptionsINS_6vectorIN7atcoder13static_modintILi167772161ELPv0EEENS_9allocatorIS5_EEE16__destroy_vectorEEC2B8ue170006ES9_, symObjAddr: 0x8A74, symBinAddr: 0x100009790, symSize: 0x24 }
  - { offsetInCU: 0x1EE1B, offset: 0x1EE1B, size: 0x8, addend: 0x0, symName: __ZNSt3__16vectorIN7atcoder13static_modintILi167772161ELPv0EEENS_9allocatorIS4_EEE16__destroy_vectorC2B8ue170006ERS7_, symObjAddr: 0x8A98, symBinAddr: 0x1000097B4, symSize: 0x20 }
  - { offsetInCU: 0x1EE54, offset: 0x1EE54, size: 0x8, addend: 0x0, symName: __ZNKSt3__16vectorIN7atcoder13static_modintILi167772161ELPv0EEENS_9allocatorIS4_EEE8max_sizeEv, symObjAddr: 0x8AB8, symBinAddr: 0x1000097D4, symSize: 0x60 }
  - { offsetInCU: 0x1EE7C, offset: 0x1EE7C, size: 0x8, addend: 0x0, symName: __ZNKSt3__16vectorIN7atcoder13static_modintILi167772161ELPv0EEENS_9allocatorIS4_EEE20__throw_length_errorB8ue170006Ev, symObjAddr: 0x8B18, symBinAddr: 0x100009834, symSize: 0x1C }
  - { offsetInCU: 0x1EEA2, offset: 0x1EEA2, size: 0x8, addend: 0x0, symName: __ZNSt3__16vectorIN7atcoder13static_modintILi167772161ELPv0EEENS_9allocatorIS4_EEE7__allocB8ue170006Ev, symObjAddr: 0x8B74, symBinAddr: 0x100009890, symSize: 0x28 }
  - { offsetInCU: 0x1EEC8, offset: 0x1EEC8, size: 0x8, addend: 0x0, symName: __ZNSt3__16vectorIN7atcoder13static_modintILi167772161ELPv0EEENS_9allocatorIS4_EEE9__end_capB8ue170006Ev, symObjAddr: 0x8B9C, symBinAddr: 0x1000098B8, symSize: 0x28 }
  - { offsetInCU: 0x1EEEE, offset: 0x1EEEE, size: 0x8, addend: 0x0, symName: __ZNKSt3__16vectorIN7atcoder13static_modintILi167772161ELPv0EEENS_9allocatorIS4_EEE14__annotate_newB8ue170006Em, symObjAddr: 0x8BC4, symBinAddr: 0x1000098E0, symSize: 0xAC }
  - { offsetInCU: 0x1EF2D, offset: 0x1EF2D, size: 0x8, addend: 0x0, symName: __ZNSt3__116allocator_traitsINS_9allocatorIN7atcoder13static_modintILi167772161ELPv0EEEEEE8max_sizeB8ue170006IS6_vEEmRKS6_, symObjAddr: 0x8C70, symBinAddr: 0x10000998C, symSize: 0x24 }
  - { offsetInCU: 0x1EF5B, offset: 0x1EF5B, size: 0x8, addend: 0x0, symName: __ZNKSt3__16vectorIN7atcoder13static_modintILi167772161ELPv0EEENS_9allocatorIS4_EEE7__allocB8ue170006Ev, symObjAddr: 0x8C94, symBinAddr: 0x1000099B0, symSize: 0x28 }
  - { offsetInCU: 0x1EF81, offset: 0x1EF81, size: 0x8, addend: 0x0, symName: __ZNKSt3__19allocatorIN7atcoder13static_modintILi167772161ELPv0EEEE8max_sizeB8ue170006Ev, symObjAddr: 0x8CBC, symBinAddr: 0x1000099D8, symSize: 0x14 }
  - { offsetInCU: 0x1EFA7, offset: 0x1EFA7, size: 0x8, addend: 0x0, symName: __ZNKSt3__117__compressed_pairIPN7atcoder13static_modintILi167772161ELPv0EEENS_9allocatorIS4_EEE6secondB8ue170006Ev, symObjAddr: 0x8CD0, symBinAddr: 0x1000099EC, symSize: 0x24 }
  - { offsetInCU: 0x1EFCD, offset: 0x1EFCD, size: 0x8, addend: 0x0, symName: __ZNKSt3__122__compressed_pair_elemINS_9allocatorIN7atcoder13static_modintILi167772161ELPv0EEEEELi1ELb1EE5__getB8ue170006Ev, symObjAddr: 0x8CF4, symBinAddr: 0x100009A10, symSize: 0x14 }
  - { offsetInCU: 0x1EFF3, offset: 0x1EFF3, size: 0x8, addend: 0x0, symName: __ZNSt3__19allocatorIN7atcoder13static_modintILi167772161ELPv0EEEE8allocateB8ue170006Em, symObjAddr: 0x8D08, symBinAddr: 0x100009A24, symSize: 0x58 }
  - { offsetInCU: 0x1F027, offset: 0x1F027, size: 0x8, addend: 0x0, symName: __ZNSt3__117__compressed_pairIPN7atcoder13static_modintILi167772161ELPv0EEENS_9allocatorIS4_EEE6secondB8ue170006Ev, symObjAddr: 0x8D60, symBinAddr: 0x100009A7C, symSize: 0x24 }
  - { offsetInCU: 0x1F04D, offset: 0x1F04D, size: 0x8, addend: 0x0, symName: __ZNSt3__122__compressed_pair_elemINS_9allocatorIN7atcoder13static_modintILi167772161ELPv0EEEEELi1ELb1EE5__getB8ue170006Ev, symObjAddr: 0x8D84, symBinAddr: 0x100009AA0, symSize: 0x14 }
  - { offsetInCU: 0x1F073, offset: 0x1F073, size: 0x8, addend: 0x0, symName: __ZNSt3__117__compressed_pairIPN7atcoder13static_modintILi167772161ELPv0EEENS_9allocatorIS4_EEE5firstB8ue170006Ev, symObjAddr: 0x8D98, symBinAddr: 0x100009AB4, symSize: 0x24 }
  - { offsetInCU: 0x1F099, offset: 0x1F099, size: 0x8, addend: 0x0, symName: __ZNSt3__122__compressed_pair_elemIPN7atcoder13static_modintILi167772161ELPv0EEELi0ELb0EE5__getB8ue170006Ev, symObjAddr: 0x8DBC, symBinAddr: 0x100009AD8, symSize: 0x14 }
  - { offsetInCU: 0x1F0BF, offset: 0x1F0BF, size: 0x8, addend: 0x0, symName: __ZNKSt3__16vectorIN7atcoder13static_modintILi167772161ELPv0EEENS_9allocatorIS4_EEE31__annotate_contiguous_containerB8ue170006EPKvS9_S9_S9_, symObjAddr: 0x8DD0, symBinAddr: 0x100009AEC, symSize: 0x20 }
  - { offsetInCU: 0x1F111, offset: 0x1F111, size: 0x8, addend: 0x0, symName: __ZNKSt3__16vectorIN7atcoder13static_modintILi167772161ELPv0EEENS_9allocatorIS4_EEE4dataB8ue170006Ev, symObjAddr: 0x8DF0, symBinAddr: 0x100009B0C, symSize: 0x28 }
  - { offsetInCU: 0x1F137, offset: 0x1F137, size: 0x8, addend: 0x0, symName: __ZNKSt3__16vectorIN7atcoder13static_modintILi167772161ELPv0EEENS_9allocatorIS4_EEE8capacityB8ue170006Ev, symObjAddr: 0x8E18, symBinAddr: 0x100009B34, symSize: 0x40 }
  - { offsetInCU: 0x1F15D, offset: 0x1F15D, size: 0x8, addend: 0x0, symName: __ZNKSt3__16vectorIN7atcoder13static_modintILi167772161ELPv0EEENS_9allocatorIS4_EEE9__end_capB8ue170006Ev, symObjAddr: 0x8E6C, symBinAddr: 0x100009B88, symSize: 0x28 }
  - { offsetInCU: 0x1F183, offset: 0x1F183, size: 0x8, addend: 0x0, symName: __ZNKSt3__117__compressed_pairIPN7atcoder13static_modintILi167772161ELPv0EEENS_9allocatorIS4_EEE5firstB8ue170006Ev, symObjAddr: 0x8E94, symBinAddr: 0x100009BB0, symSize: 0x24 }
  - { offsetInCU: 0x1F1A9, offset: 0x1F1A9, size: 0x8, addend: 0x0, symName: __ZNKSt3__122__compressed_pair_elemIPN7atcoder13static_modintILi167772161ELPv0EEELi0ELb0EE5__getB8ue170006Ev, symObjAddr: 0x8EB8, symBinAddr: 0x100009BD4, symSize: 0x14 }
  - { offsetInCU: 0x1F1E8, offset: 0x1F1E8, size: 0x8, addend: 0x0, symName: __ZNSt3__16vectorIN7atcoder13static_modintILi167772161ELPv0EEENS_9allocatorIS4_EEE21_ConstructTransactionC1B8ue170006ERS7_m, symObjAddr: 0x8ECC, symBinAddr: 0x100009BE8, symSize: 0x3C }
  - { offsetInCU: 0x1F230, offset: 0x1F230, size: 0x8, addend: 0x0, symName: __ZNSt3__116allocator_traitsINS_9allocatorIN7atcoder13static_modintILi167772161ELPv0EEEEEE9constructB8ue170006IS5_JEvEEvRS6_PT_DpOT0_, symObjAddr: 0x8F08, symBinAddr: 0x100009C24, symSize: 0x2C }
  - { offsetInCU: 0x1F272, offset: 0x1F272, size: 0x8, addend: 0x0, symName: __ZNSt3__16vectorIN7atcoder13static_modintILi167772161ELPv0EEENS_9allocatorIS4_EEE21_ConstructTransactionD1B8ue170006Ev, symObjAddr: 0x8F34, symBinAddr: 0x100009C50, symSize: 0x2C }
  - { offsetInCU: 0x1F29C, offset: 0x1F29C, size: 0x8, addend: 0x0, symName: __ZNSt3__16vectorIN7atcoder13static_modintILi167772161ELPv0EEENS_9allocatorIS4_EEE21_ConstructTransactionC2B8ue170006ERS7_m, symObjAddr: 0x8F60, symBinAddr: 0x100009C7C, symSize: 0x44 }
  - { offsetInCU: 0x1F2E4, offset: 0x1F2E4, size: 0x8, addend: 0x0, symName: __ZNSt3__19allocatorIN7atcoder13static_modintILi167772161ELPv0EEEE9constructB8ue170006IS4_JEEEvPT_DpOT0_, symObjAddr: 0x8FA4, symBinAddr: 0x100009CC0, symSize: 0x28 }
  - { offsetInCU: 0x1F326, offset: 0x1F326, size: 0x8, addend: 0x0, symName: __ZN7atcoder13static_modintILi167772161ELPv0EEC1Ev, symObjAddr: 0x8FCC, symBinAddr: 0x100009CE8, symSize: 0x2C }
  - { offsetInCU: 0x1F350, offset: 0x1F350, size: 0x8, addend: 0x0, symName: __ZN7atcoder13static_modintILi167772161ELPv0EEC2Ev, symObjAddr: 0x8FF8, symBinAddr: 0x100009D14, symSize: 0x18 }
  - { offsetInCU: 0x1F37A, offset: 0x1F37A, size: 0x8, addend: 0x0, symName: __ZNSt3__16vectorIN7atcoder13static_modintILi167772161ELPv0EEENS_9allocatorIS4_EEE21_ConstructTransactionD2B8ue170006Ev, symObjAddr: 0x9010, symBinAddr: 0x100009D2C, symSize: 0x20 }
  - { offsetInCU: 0x1F3A4, offset: 0x1F3A4, size: 0x8, addend: 0x0, symName: __ZNSt3__128__exception_guard_exceptionsINS_6vectorIN7atcoder13static_modintILi167772161ELPv0EEENS_9allocatorIS5_EEE16__destroy_vectorEED2B8ue170006Ev, symObjAddr: 0x9030, symBinAddr: 0x100009D4C, symSize: 0x50 }
  - { offsetInCU: 0x1F3CE, offset: 0x1F3CE, size: 0x8, addend: 0x0, symName: __ZNSt3__16vectorIN7atcoder13static_modintILi167772161ELPv0EEENS_9allocatorIS4_EEE16__destroy_vectorclB8ue170006Ev, symObjAddr: 0x9080, symBinAddr: 0x100009D9C, symSize: 0x90 }
  - { offsetInCU: 0x1F3F4, offset: 0x1F3F4, size: 0x8, addend: 0x0, symName: __ZNSt3__16vectorIN7atcoder13static_modintILi167772161ELPv0EEENS_9allocatorIS4_EEE7__clearB8ue170006Ev, symObjAddr: 0x9110, symBinAddr: 0x100009E2C, symSize: 0x28 }
  - { offsetInCU: 0x1F41A, offset: 0x1F41A, size: 0x8, addend: 0x0, symName: __ZNKSt3__16vectorIN7atcoder13static_modintILi167772161ELPv0EEENS_9allocatorIS4_EEE17__annotate_deleteB8ue170006Ev, symObjAddr: 0x9138, symBinAddr: 0x100009E54, symSize: 0xB8 }
  - { offsetInCU: 0x1F440, offset: 0x1F440, size: 0x8, addend: 0x0, symName: __ZNSt3__116allocator_traitsINS_9allocatorIN7atcoder13static_modintILi167772161ELPv0EEEEEE10deallocateB8ue170006ERS6_PS5_m, symObjAddr: 0x91F0, symBinAddr: 0x100009F0C, symSize: 0x34 }
  - { offsetInCU: 0x1F482, offset: 0x1F482, size: 0x8, addend: 0x0, symName: __ZNSt3__16vectorIN7atcoder13static_modintILi167772161ELPv0EEENS_9allocatorIS4_EEE22__base_destruct_at_endB8ue170006EPS4_, symObjAddr: 0x9224, symBinAddr: 0x100009F40, symSize: 0x8C }
  - { offsetInCU: 0x1F4C6, offset: 0x1F4C6, size: 0x8, addend: 0x0, symName: __ZNSt3__116allocator_traitsINS_9allocatorIN7atcoder13static_modintILi167772161ELPv0EEEEEE7destroyB8ue170006IS5_vEEvRS6_PT_, symObjAddr: 0x92B0, symBinAddr: 0x100009FCC, symSize: 0x2C }
  - { offsetInCU: 0x1F503, offset: 0x1F503, size: 0x8, addend: 0x0, symName: __ZNSt3__19allocatorIN7atcoder13static_modintILi167772161ELPv0EEEE7destroyB8ue170006EPS4_, symObjAddr: 0x92DC, symBinAddr: 0x100009FF8, symSize: 0x14 }
  - { offsetInCU: 0x1F537, offset: 0x1F537, size: 0x8, addend: 0x0, symName: __ZNKSt3__16vectorIN7atcoder13static_modintILi167772161ELPv0EEENS_9allocatorIS4_EEE4sizeB8ue170006Ev, symObjAddr: 0x92F0, symBinAddr: 0x10000A00C, symSize: 0x28 }
  - { offsetInCU: 0x1F55D, offset: 0x1F55D, size: 0x8, addend: 0x0, symName: __ZNSt3__19allocatorIN7atcoder13static_modintILi167772161ELPv0EEEE10deallocateB8ue170006EPS4_m, symObjAddr: 0x9318, symBinAddr: 0x10000A034, symSize: 0x40 }
  - { offsetInCU: 0x1F59F, offset: 0x1F59F, size: 0x8, addend: 0x0, symName: __ZN7atcoder13static_modintILi167772161ELPv0EEC2IxLS1_0EEET_, symObjAddr: 0x9358, symBinAddr: 0x10000A074, symSize: 0x8C }
  - { offsetInCU: 0x1F602, offset: 0x1F602, size: 0x8, addend: 0x0, symName: __ZN7atcoder13static_modintILi167772161ELPv0EE4umodEv, symObjAddr: 0x93E4, symBinAddr: 0x10000A100, symSize: 0xC }
  - { offsetInCU: 0x1F616, offset: 0x1F616, size: 0x8, addend: 0x0, symName: __ZNSt3__16vectorIN7atcoder13static_modintILi167772161ELPv0EEENS_9allocatorIS4_EEEC1B8ue170006Ev, symObjAddr: 0x93F0, symBinAddr: 0x10000A10C, symSize: 0x2C }
  - { offsetInCU: 0x1F640, offset: 0x1F640, size: 0x8, addend: 0x0, symName: __ZN7atcoder13static_modintILi167772161ELPv0EEpLERKS2_, symObjAddr: 0x948C, symBinAddr: 0x10000A1A8, symSize: 0x78 }
  - { offsetInCU: 0x1F674, offset: 0x1F674, size: 0x8, addend: 0x0, symName: __ZNSt3__16vectorIN7atcoder13static_modintILi167772161ELPv0EEENS_9allocatorIS4_EEE6resizeEm, symObjAddr: 0x9504, symBinAddr: 0x10000A220, symSize: 0x94 }
  - { offsetInCU: 0x1F6BA, offset: 0x1F6BA, size: 0x8, addend: 0x0, symName: __ZN7atcoder13static_modintILi167772161ELPv0EEmLERKS2_, symObjAddr: 0x9AB0, symBinAddr: 0x10000A7CC, symSize: 0x78 }
  - { offsetInCU: 0x1F6FC, offset: 0x1F6FC, size: 0x8, addend: 0x0, symName: __ZN7atcoder13static_modintILi167772161ELPv0EEC1IiLS1_0EEET_, symObjAddr: 0xA074, symBinAddr: 0x10000AD90, symSize: 0x34 }
  - { offsetInCU: 0x1F743, offset: 0x1F743, size: 0x8, addend: 0x0, symName: __ZNK7atcoder13static_modintILi167772161ELPv0EE3invEv, symObjAddr: 0xA0A8, symBinAddr: 0x10000ADC4, symSize: 0x7C }
  - { offsetInCU: 0x1F769, offset: 0x1F769, size: 0x8, addend: 0x0, symName: __ZNSt3__16vectorIN7atcoder13static_modintILi167772161ELPv0EEENS_9allocatorIS4_EEEC2B8ue170006Ev, symObjAddr: 0xA124, symBinAddr: 0x10000AE40, symSize: 0x4C }
  - { offsetInCU: 0x1F793, offset: 0x1F793, size: 0x8, addend: 0x0, symName: __ZNSt3__16vectorIN7atcoder13static_modintILi167772161ELPv0EEENS_9allocatorIS4_EEE4swapERS7_, symObjAddr: 0xA170, symBinAddr: 0x10000AE8C, symSize: 0x84 }
  - { offsetInCU: 0x1F7CA, offset: 0x1F7CA, size: 0x8, addend: 0x0, symName: __ZNSt3__16vectorIN7atcoder13static_modintILi167772161ELPv0EEENS_9allocatorIS4_EEE8__appendEm, symObjAddr: 0xA244, symBinAddr: 0x10000AF60, symSize: 0x108 }
  - { offsetInCU: 0x1F825, offset: 0x1F825, size: 0x8, addend: 0x0, symName: __ZNSt3__16vectorIN7atcoder13static_modintILi167772161ELPv0EEENS_9allocatorIS4_EEE17__destruct_at_endB8ue170006EPS4_, symObjAddr: 0xA34C, symBinAddr: 0x10000B068, symSize: 0x4C }
  - { offsetInCU: 0x1F869, offset: 0x1F869, size: 0x8, addend: 0x0, symName: __ZNKSt3__16vectorIN7atcoder13static_modintILi167772161ELPv0EEENS_9allocatorIS4_EEE11__recommendB8ue170006Em, symObjAddr: 0xA398, symBinAddr: 0x10000B0B4, symSize: 0xB4 }
  - { offsetInCU: 0x1F8BE, offset: 0x1F8BE, size: 0x8, addend: 0x0, symName: __ZNSt3__114__split_bufferIN7atcoder13static_modintILi167772161ELPv0EEERNS_9allocatorIS4_EEEC1EmmS7_, symObjAddr: 0xA44C, symBinAddr: 0x10000B168, symSize: 0x44 }
  - { offsetInCU: 0x1F914, offset: 0x1F914, size: 0x8, addend: 0x0, symName: __ZNSt3__114__split_bufferIN7atcoder13static_modintILi167772161ELPv0EEERNS_9allocatorIS4_EEE18__construct_at_endEm, symObjAddr: 0xA490, symBinAddr: 0x10000B1AC, symSize: 0xB4 }
  - { offsetInCU: 0x1F959, offset: 0x1F959, size: 0x8, addend: 0x0, symName: __ZNSt3__114__split_bufferIN7atcoder13static_modintILi167772161ELPv0EEERNS_9allocatorIS4_EEED1Ev, symObjAddr: 0xA654, symBinAddr: 0x10000B370, symSize: 0x2C }
  - { offsetInCU: 0x1F985, offset: 0x1F985, size: 0x8, addend: 0x0, symName: __ZNSt3__114__split_bufferIN7atcoder13static_modintILi167772161ELPv0EEERNS_9allocatorIS4_EEEC2EmmS7_, symObjAddr: 0xA680, symBinAddr: 0x10000B39C, symSize: 0xD4 }
  - { offsetInCU: 0x1F9F8, offset: 0x1F9F8, size: 0x8, addend: 0x0, symName: __ZNSt3__117__compressed_pairIPN7atcoder13static_modintILi167772161ELPv0EEERNS_9allocatorIS4_EEEC1B8ue170006IDnS8_EEOT_OT0_, symObjAddr: 0xA754, symBinAddr: 0x10000B470, symSize: 0x3C }
  - { offsetInCU: 0x1FA50, offset: 0x1FA50, size: 0x8, addend: 0x0, symName: __ZNSt3__114__split_bufferIN7atcoder13static_modintILi167772161ELPv0EEERNS_9allocatorIS4_EEE7__allocB8ue170006Ev, symObjAddr: 0xA790, symBinAddr: 0x10000B4AC, symSize: 0x28 }
  - { offsetInCU: 0x1FA76, offset: 0x1FA76, size: 0x8, addend: 0x0, symName: __ZNSt3__114__split_bufferIN7atcoder13static_modintILi167772161ELPv0EEERNS_9allocatorIS4_EEE9__end_capB8ue170006Ev, symObjAddr: 0xA7B8, symBinAddr: 0x10000B4D4, symSize: 0x28 }
  - { offsetInCU: 0x1FA9C, offset: 0x1FA9C, size: 0x8, addend: 0x0, symName: __ZNSt3__117__compressed_pairIPN7atcoder13static_modintILi167772161ELPv0EEERNS_9allocatorIS4_EEEC2B8ue170006IDnS8_EEOT_OT0_, symObjAddr: 0xA7E0, symBinAddr: 0x10000B4FC, symSize: 0x48 }
  - { offsetInCU: 0x1FAF4, offset: 0x1FAF4, size: 0x8, addend: 0x0, symName: __ZNSt3__122__compressed_pair_elemIRNS_9allocatorIN7atcoder13static_modintILi167772161ELPv0EEEEELi1ELb0EEC2B8ue170006IS7_vEEOT_, symObjAddr: 0xA828, symBinAddr: 0x10000B544, symSize: 0x20 }
  - { offsetInCU: 0x1FB36, offset: 0x1FB36, size: 0x8, addend: 0x0, symName: __ZNSt3__117__compressed_pairIPN7atcoder13static_modintILi167772161ELPv0EEERNS_9allocatorIS4_EEE6secondB8ue170006Ev, symObjAddr: 0xA848, symBinAddr: 0x10000B564, symSize: 0x28 }
  - { offsetInCU: 0x1FB5C, offset: 0x1FB5C, size: 0x8, addend: 0x0, symName: __ZNSt3__122__compressed_pair_elemIRNS_9allocatorIN7atcoder13static_modintILi167772161ELPv0EEEEELi1ELb0EE5__getB8ue170006Ev, symObjAddr: 0xA870, symBinAddr: 0x10000B58C, symSize: 0x18 }
  - { offsetInCU: 0x1FB82, offset: 0x1FB82, size: 0x8, addend: 0x0, symName: __ZNSt3__117__compressed_pairIPN7atcoder13static_modintILi167772161ELPv0EEERNS_9allocatorIS4_EEE5firstB8ue170006Ev, symObjAddr: 0xA888, symBinAddr: 0x10000B5A4, symSize: 0x24 }
  - { offsetInCU: 0x1FBB2, offset: 0x1FBB2, size: 0x8, addend: 0x0, symName: __ZNSt3__114__split_bufferIN7atcoder13static_modintILi167772161ELPv0EEERNS_9allocatorIS4_EEE21_ConstructTransactionC1B8ue170006EPPS4_m, symObjAddr: 0xA8AC, symBinAddr: 0x10000B5C8, symSize: 0x3C }
  - { offsetInCU: 0x1FBF8, offset: 0x1FBF8, size: 0x8, addend: 0x0, symName: __ZNSt3__114__split_bufferIN7atcoder13static_modintILi167772161ELPv0EEERNS_9allocatorIS4_EEE21_ConstructTransactionD1B8ue170006Ev, symObjAddr: 0xA8E8, symBinAddr: 0x10000B604, symSize: 0x2C }
  - { offsetInCU: 0x1FC22, offset: 0x1FC22, size: 0x8, addend: 0x0, symName: __ZNSt3__114__split_bufferIN7atcoder13static_modintILi167772161ELPv0EEERNS_9allocatorIS4_EEE21_ConstructTransactionC2B8ue170006EPPS4_m, symObjAddr: 0xA914, symBinAddr: 0x10000B630, symSize: 0x44 }
  - { offsetInCU: 0x1FC68, offset: 0x1FC68, size: 0x8, addend: 0x0, symName: __ZNSt3__114__split_bufferIN7atcoder13static_modintILi167772161ELPv0EEERNS_9allocatorIS4_EEE21_ConstructTransactionD2B8ue170006Ev, symObjAddr: 0xA958, symBinAddr: 0x10000B674, symSize: 0x20 }
  - { offsetInCU: 0x1FC92, offset: 0x1FC92, size: 0x8, addend: 0x0, symName: __ZNSt3__116reverse_iteratorIPN7atcoder13static_modintILi167772161ELPv0EEEEC1B8ue170006ES5_, symObjAddr: 0xA9F0, symBinAddr: 0x10000B70C, symSize: 0x34 }
  - { offsetInCU: 0x1FCCA, offset: 0x1FCCA, size: 0x8, addend: 0x0, symName: __ZNKSt3__116reverse_iteratorIPN7atcoder13static_modintILi167772161ELPv0EEEE4baseB8ue170006Ev, symObjAddr: 0xAA24, symBinAddr: 0x10000B740, symSize: 0x18 }
  - { offsetInCU: 0x1FD0A, offset: 0x1FD0A, size: 0x8, addend: 0x0, symName: __ZNKSt3__111__move_loopINS_17_ClassicAlgPolicyEEclB8ue170006INS_16reverse_iteratorIPN7atcoder13static_modintILi167772161ELPv0EEEEESA_SA_EENS_4pairIT_T1_EESC_T0_SD_, symObjAddr: 0xAD2C, symBinAddr: 0x10000BA48, symSize: 0xA0 }
  - { offsetInCU: 0x1FD7B, offset: 0x1FD7B, size: 0x8, addend: 0x0, symName: __ZNSt3__18_IterOpsINS_17_ClassicAlgPolicyEE11__iter_moveB8ue170006IRNS_16reverse_iteratorIPN7atcoder13static_modintILi167772161ELPv0EEEEEEENS_9enable_ifIXsr12is_referenceIDTdeclsr3stdE7declvalIRT_EEEEE5valueEDTclsr3stdE4movedeclsr3stdE7declvalISE_EEEEE4typeEOSD_, symObjAddr: 0xAF60, symBinAddr: 0x10000BC7C, symSize: 0x28 }
  - { offsetInCU: 0x1FDA7, offset: 0x1FDA7, size: 0x8, addend: 0x0, symName: __ZNKSt3__116reverse_iteratorIPN7atcoder13static_modintILi167772161ELPv0EEEEdeB8ue170006Ev, symObjAddr: 0xAF88, symBinAddr: 0x10000BCA4, symSize: 0x28 }
  - { offsetInCU: 0x1FDDB, offset: 0x1FDDB, size: 0x8, addend: 0x0, symName: __ZNSt3__116reverse_iteratorIPN7atcoder13static_modintILi167772161ELPv0EEEEppB8ue170006Ev, symObjAddr: 0xAFB0, symBinAddr: 0x10000BCCC, symSize: 0x20 }
  - { offsetInCU: 0x1FE01, offset: 0x1FE01, size: 0x8, addend: 0x0, symName: __ZNSt3__18_IterOpsINS_17_ClassicAlgPolicyEE25__validate_iter_referenceB8ue170006IRNS_16reverse_iteratorIPN7atcoder13static_modintILi167772161ELPv0EEEEEEEvv, symObjAddr: 0xAFD0, symBinAddr: 0x10000BCEC, symSize: 0x4 }
  - { offsetInCU: 0x1FE1F, offset: 0x1FE1F, size: 0x8, addend: 0x0, symName: __ZNSt3__118__unwrap_iter_implINS_16reverse_iteratorIPN7atcoder13static_modintILi167772161ELPv0EEEEELb0EE8__unwrapB8ue170006ES7_, symObjAddr: 0xAFD4, symBinAddr: 0x10000BCF0, symSize: 0x24 }
  - { offsetInCU: 0x1FE48, offset: 0x1FE48, size: 0x8, addend: 0x0, symName: __ZNSt3__14pairINS_16reverse_iteratorIPN7atcoder13static_modintILi167772161ELPv0EEEEES7_EC1B8ue170006IS7_S7_LS4_0EEEOT_OT0_, symObjAddr: 0xAFF8, symBinAddr: 0x10000BD14, symSize: 0x3C }
  - { offsetInCU: 0x1FEA6, offset: 0x1FEA6, size: 0x8, addend: 0x0, symName: __ZNSt3__14pairINS_16reverse_iteratorIPN7atcoder13static_modintILi167772161ELPv0EEEEES7_EC2B8ue170006IS7_S7_LS4_0EEEOT_OT0_, symObjAddr: 0xB034, symBinAddr: 0x10000BD50, symSize: 0x34 }
  - { offsetInCU: 0x1FF04, offset: 0x1FF04, size: 0x8, addend: 0x0, symName: __ZNSt3__118__unwrap_iter_implINS_16reverse_iteratorIPN7atcoder13static_modintILi167772161ELPv0EEEEELb0EE8__rewrapB8ue170006ES7_S7_, symObjAddr: 0xB068, symBinAddr: 0x10000BD84, symSize: 0x2C }
  - { offsetInCU: 0x1FF31, offset: 0x1FF31, size: 0x8, addend: 0x0, symName: __ZNSt3__116reverse_iteratorIPN7atcoder13static_modintILi167772161ELPv0EEEEC2B8ue170006ES5_, symObjAddr: 0xB094, symBinAddr: 0x10000BDB0, symSize: 0x28 }
  - { offsetInCU: 0x1FF69, offset: 0x1FF69, size: 0x8, addend: 0x0, symName: __ZNSt3__114__split_bufferIN7atcoder13static_modintILi167772161ELPv0EEERNS_9allocatorIS4_EEED2Ev, symObjAddr: 0xB0BC, symBinAddr: 0x10000BDD8, symSize: 0x8C }
  - { offsetInCU: 0x1FF95, offset: 0x1FF95, size: 0x8, addend: 0x0, symName: __ZNSt3__114__split_bufferIN7atcoder13static_modintILi167772161ELPv0EEERNS_9allocatorIS4_EEE5clearB8ue170006Ev, symObjAddr: 0xB148, symBinAddr: 0x10000BE64, symSize: 0x28 }
  - { offsetInCU: 0x1FFBB, offset: 0x1FFBB, size: 0x8, addend: 0x0, symName: __ZNKSt3__114__split_bufferIN7atcoder13static_modintILi167772161ELPv0EEERNS_9allocatorIS4_EEE8capacityB8ue170006Ev, symObjAddr: 0xB170, symBinAddr: 0x10000BE8C, symSize: 0x40 }
  - { offsetInCU: 0x1FFE1, offset: 0x1FFE1, size: 0x8, addend: 0x0, symName: __ZNSt3__114__split_bufferIN7atcoder13static_modintILi167772161ELPv0EEERNS_9allocatorIS4_EEE17__destruct_at_endB8ue170006EPS4_, symObjAddr: 0xB1B0, symBinAddr: 0x10000BECC, symSize: 0x2C }
  - { offsetInCU: 0x20015, offset: 0x20015, size: 0x8, addend: 0x0, symName: __ZNSt3__114__split_bufferIN7atcoder13static_modintILi167772161ELPv0EEERNS_9allocatorIS4_EEE17__destruct_at_endB8ue170006EPS4_NS_17integral_constantIbLb0EEE, symObjAddr: 0xB1DC, symBinAddr: 0x10000BEF8, symSize: 0x80 }
  - { offsetInCU: 0x20055, offset: 0x20055, size: 0x8, addend: 0x0, symName: __ZNKSt3__114__split_bufferIN7atcoder13static_modintILi167772161ELPv0EEERNS_9allocatorIS4_EEE9__end_capB8ue170006Ev, symObjAddr: 0xB25C, symBinAddr: 0x10000BF78, symSize: 0x28 }
  - { offsetInCU: 0x2007B, offset: 0x2007B, size: 0x8, addend: 0x0, symName: __ZNKSt3__117__compressed_pairIPN7atcoder13static_modintILi167772161ELPv0EEERNS_9allocatorIS4_EEE5firstB8ue170006Ev, symObjAddr: 0xB284, symBinAddr: 0x10000BFA0, symSize: 0x24 }
  - { offsetInCU: 0x200A1, offset: 0x200A1, size: 0x8, addend: 0x0, symName: __ZNKSt3__16vectorIN7atcoder13static_modintILi167772161ELPv0EEENS_9allocatorIS4_EEE17__annotate_shrinkB8ue170006Em, symObjAddr: 0xB2A8, symBinAddr: 0x10000BFC4, symSize: 0xB4 }
  - { offsetInCU: 0x200D6, offset: 0x200D6, size: 0x8, addend: 0x0, symName: __ZN7atcoder13static_modintILi167772161ELPv0EE3modEv, symObjAddr: 0xB35C, symBinAddr: 0x10000C078, symSize: 0xC }
  - { offsetInCU: 0x200EA, offset: 0x200EA, size: 0x8, addend: 0x0, symName: __ZNK7atcoder13static_modintILi167772161ELPv0EE3powEx, symObjAddr: 0xB368, symBinAddr: 0x10000C084, symSize: 0xD8 }
  - { offsetInCU: 0x2013A, offset: 0x2013A, size: 0x8, addend: 0x0, symName: __ZN7atcoder13static_modintILi167772161ELPv0EEmIERKS2_, symObjAddr: 0xB4C8, symBinAddr: 0x10000C1E4, symSize: 0x78 }
  - { offsetInCU: 0x2016E, offset: 0x2016E, size: 0x8, addend: 0x0, symName: __ZN7atcoder13static_modintILi167772161ELPv0EEC1IyLS1_0EEET_, symObjAddr: 0xB540, symBinAddr: 0x10000C25C, symSize: 0x34 }
  - { offsetInCU: 0x201B5, offset: 0x201B5, size: 0x8, addend: 0x0, symName: __ZN7atcoder13static_modintILi167772161ELPv0EEC2IyLS1_0EEET_, symObjAddr: 0xB574, symBinAddr: 0x10000C290, symSize: 0x58 }
  - { offsetInCU: 0x201FC, offset: 0x201FC, size: 0x8, addend: 0x0, symName: __ZN7atcoder13static_modintILi167772161ELPv0EEC2IiLS1_0EEET_, symObjAddr: 0xB5CC, symBinAddr: 0x10000C2E8, symSize: 0x8C }
  - { offsetInCU: 0x2025F, offset: 0x2025F, size: 0x8, addend: 0x0, symName: __ZNSt3__16vectorIN7atcoder13static_modintILi167772161ELPv0EEENS_9allocatorIS4_EEEC2B8ue170006EOS7_, symObjAddr: 0xB658, symBinAddr: 0x10000C374, symSize: 0xC4 }
  - { offsetInCU: 0x202A0, offset: 0x202A0, size: 0x8, addend: 0x0, symName: __ZNSt3__117__compressed_pairIPN7atcoder13static_modintILi167772161ELPv0EEENS_9allocatorIS4_EEEC1B8ue170006IDnS7_EEOT_OT0_, symObjAddr: 0xB71C, symBinAddr: 0x10000C438, symSize: 0x3C }
  - { offsetInCU: 0x202F8, offset: 0x202F8, size: 0x8, addend: 0x0, symName: __ZNSt3__117__compressed_pairIPN7atcoder13static_modintILi167772161ELPv0EEENS_9allocatorIS4_EEEC2B8ue170006IDnS7_EEOT_OT0_, symObjAddr: 0xB758, symBinAddr: 0x10000C474, symSize: 0x44 }
  - { offsetInCU: 0x20350, offset: 0x20350, size: 0x8, addend: 0x0, symName: __ZNSt3__122__compressed_pair_elemINS_9allocatorIN7atcoder13static_modintILi167772161ELPv0EEEEELi1ELb1EEC2B8ue170006IS6_vEEOT_, symObjAddr: 0xB79C, symBinAddr: 0x10000C4B8, symSize: 0x18 }
  - { offsetInCU: 0x20392, offset: 0x20392, size: 0x8, addend: 0x0, symName: __ZNSt3__16vectorIN7atcoder13static_modintILi167772161ELPv0EEENS_9allocatorIS4_EEED2B8ue170006Ev, symObjAddr: 0xB7B4, symBinAddr: 0x10000C4D0, symSize: 0x40 }
  - { offsetInCU: 0x203BC, offset: 0x203BC, size: 0x8, addend: 0x0, symName: __ZNSt3__16vectorIN7atcoder13static_modintILi469762049ELPv0EEENS_9allocatorIS4_EEEC1Em, symObjAddr: 0xB7F4, symBinAddr: 0x10000C510, symSize: 0x34 }
  - { offsetInCU: 0x203F7, offset: 0x203F7, size: 0x8, addend: 0x0, symName: __ZN7atcoder13static_modintILi469762049ELPv0EEC1IxLS1_0EEET_, symObjAddr: 0xB828, symBinAddr: 0x10000C544, symSize: 0x34 }
  - { offsetInCU: 0x2043E, offset: 0x2043E, size: 0x8, addend: 0x0, symName: __ZNSt3__16vectorIN7atcoder13static_modintILi469762049ELPv0EEENS_9allocatorIS4_EEEixB8ue170006Em, symObjAddr: 0xB85C, symBinAddr: 0x10000C578, symSize: 0x24 }
  - { offsetInCU: 0x20475, offset: 0x20475, size: 0x8, addend: 0x0, symName: __ZNSt3__16vectorIN7atcoder13static_modintILi469762049ELPv0EEENS_9allocatorIS4_EEEC1B8ue170006EOS7_, symObjAddr: 0xBC04, symBinAddr: 0x10000C920, symSize: 0x34 }
  - { offsetInCU: 0x204B0, offset: 0x204B0, size: 0x8, addend: 0x0, symName: __ZNSt3__16vectorIN7atcoder13static_modintILi469762049ELPv0EEENS_9allocatorIS4_EEED1B8ue170006Ev, symObjAddr: 0xBC38, symBinAddr: 0x10000C954, symSize: 0x2C }
  - { offsetInCU: 0x204DA, offset: 0x204DA, size: 0x8, addend: 0x0, symName: __ZNK7atcoder13static_modintILi469762049ELPv0EE3valEv, symObjAddr: 0xBC64, symBinAddr: 0x10000C980, symSize: 0x18 }
  - { offsetInCU: 0x20500, offset: 0x20500, size: 0x8, addend: 0x0, symName: __ZNSt3__16vectorIN7atcoder13static_modintILi469762049ELPv0EEENS_9allocatorIS4_EEEC2Em, symObjAddr: 0xBC7C, symBinAddr: 0x10000C998, symSize: 0xD4 }
  - { offsetInCU: 0x20550, offset: 0x20550, size: 0x8, addend: 0x0, symName: __ZNSt3__117__compressed_pairIPN7atcoder13static_modintILi469762049ELPv0EEENS_9allocatorIS4_EEEC1B8ue170006IDnNS_18__default_init_tagEEEOT_OT0_, symObjAddr: 0xBD50, symBinAddr: 0x10000CA6C, symSize: 0x3C }
  - { offsetInCU: 0x205A8, offset: 0x205A8, size: 0x8, addend: 0x0, symName: __ZNSt3__16vectorIN7atcoder13static_modintILi469762049ELPv0EEENS_9allocatorIS4_EEE16__destroy_vectorC1B8ue170006ERS7_, symObjAddr: 0xBDCC, symBinAddr: 0x10000CAE8, symSize: 0x34 }
  - { offsetInCU: 0x205E1, offset: 0x205E1, size: 0x8, addend: 0x0, symName: __ZNSt3__16vectorIN7atcoder13static_modintILi469762049ELPv0EEENS_9allocatorIS4_EEE11__vallocateB8ue170006Em, symObjAddr: 0xBE00, symBinAddr: 0x10000CB1C, symSize: 0xAC }
  - { offsetInCU: 0x20625, offset: 0x20625, size: 0x8, addend: 0x0, symName: __ZNSt3__16vectorIN7atcoder13static_modintILi469762049ELPv0EEENS_9allocatorIS4_EEE18__construct_at_endEm, symObjAddr: 0xBEAC, symBinAddr: 0x10000CBC8, symSize: 0xC8 }
  - { offsetInCU: 0x20697, offset: 0x20697, size: 0x8, addend: 0x0, symName: __ZNSt3__128__exception_guard_exceptionsINS_6vectorIN7atcoder13static_modintILi469762049ELPv0EEENS_9allocatorIS5_EEE16__destroy_vectorEE10__completeB8ue170006Ev, symObjAddr: 0xBF74, symBinAddr: 0x10000CC90, symSize: 0x1C }
  - { offsetInCU: 0x206BD, offset: 0x206BD, size: 0x8, addend: 0x0, symName: __ZNSt3__128__exception_guard_exceptionsINS_6vectorIN7atcoder13static_modintILi469762049ELPv0EEENS_9allocatorIS5_EEE16__destroy_vectorEED1B8ue170006Ev, symObjAddr: 0xBF90, symBinAddr: 0x10000CCAC, symSize: 0x2C }
  - { offsetInCU: 0x206E7, offset: 0x206E7, size: 0x8, addend: 0x0, symName: __ZNSt3__117__compressed_pairIPN7atcoder13static_modintILi469762049ELPv0EEENS_9allocatorIS4_EEEC2B8ue170006IDnNS_18__default_init_tagEEEOT_OT0_, symObjAddr: 0xBFBC, symBinAddr: 0x10000CCD8, symSize: 0x40 }
  - { offsetInCU: 0x2073F, offset: 0x2073F, size: 0x8, addend: 0x0, symName: __ZNSt3__122__compressed_pair_elemIPN7atcoder13static_modintILi469762049ELPv0EEELi0ELb0EEC2B8ue170006IDnvEEOT_, symObjAddr: 0xBFFC, symBinAddr: 0x10000CD18, symSize: 0x1C }
  - { offsetInCU: 0x20781, offset: 0x20781, size: 0x8, addend: 0x0, symName: __ZNSt3__122__compressed_pair_elemINS_9allocatorIN7atcoder13static_modintILi469762049ELPv0EEEEELi1ELb1EEC2B8ue170006ENS_18__default_init_tagE, symObjAddr: 0xC018, symBinAddr: 0x10000CD34, symSize: 0x2C }
  - { offsetInCU: 0x207B5, offset: 0x207B5, size: 0x8, addend: 0x0, symName: __ZNSt3__19allocatorIN7atcoder13static_modintILi469762049ELPv0EEEEC2B8ue170006Ev, symObjAddr: 0xC044, symBinAddr: 0x10000CD60, symSize: 0x2C }
  - { offsetInCU: 0x207DF, offset: 0x207DF, size: 0x8, addend: 0x0, symName: __ZNSt3__116__non_trivial_ifILb1ENS_9allocatorIN7atcoder13static_modintILi469762049ELPv0EEEEEEC2B8ue170006Ev, symObjAddr: 0xC070, symBinAddr: 0x10000CD8C, symSize: 0x14 }
  - { offsetInCU: 0x20809, offset: 0x20809, size: 0x8, addend: 0x0, symName: __ZNSt3__128__exception_guard_exceptionsINS_6vectorIN7atcoder13static_modintILi469762049ELPv0EEENS_9allocatorIS5_EEE16__destroy_vectorEEC1B8ue170006ES9_, symObjAddr: 0xC084, symBinAddr: 0x10000CDA0, symSize: 0x34 }
  - { offsetInCU: 0x20841, offset: 0x20841, size: 0x8, addend: 0x0, symName: __ZNSt3__128__exception_guard_exceptionsINS_6vectorIN7atcoder13static_modintILi469762049ELPv0EEENS_9allocatorIS5_EEE16__destroy_vectorEEC2B8ue170006ES9_, symObjAddr: 0xC0B8, symBinAddr: 0x10000CDD4, symSize: 0x24 }
  - { offsetInCU: 0x20879, offset: 0x20879, size: 0x8, addend: 0x0, symName: __ZNSt3__16vectorIN7atcoder13static_modintILi469762049ELPv0EEENS_9allocatorIS4_EEE16__destroy_vectorC2B8ue170006ERS7_, symObjAddr: 0xC0DC, symBinAddr: 0x10000CDF8, symSize: 0x20 }
  - { offsetInCU: 0x208B2, offset: 0x208B2, size: 0x8, addend: 0x0, symName: __ZNKSt3__16vectorIN7atcoder13static_modintILi469762049ELPv0EEENS_9allocatorIS4_EEE8max_sizeEv, symObjAddr: 0xC0FC, symBinAddr: 0x10000CE18, symSize: 0x60 }
  - { offsetInCU: 0x208DA, offset: 0x208DA, size: 0x8, addend: 0x0, symName: __ZNKSt3__16vectorIN7atcoder13static_modintILi469762049ELPv0EEENS_9allocatorIS4_EEE20__throw_length_errorB8ue170006Ev, symObjAddr: 0xC15C, symBinAddr: 0x10000CE78, symSize: 0x1C }
  - { offsetInCU: 0x20900, offset: 0x20900, size: 0x8, addend: 0x0, symName: __ZNSt3__16vectorIN7atcoder13static_modintILi469762049ELPv0EEENS_9allocatorIS4_EEE7__allocB8ue170006Ev, symObjAddr: 0xC1B8, symBinAddr: 0x10000CED4, symSize: 0x28 }
  - { offsetInCU: 0x20926, offset: 0x20926, size: 0x8, addend: 0x0, symName: __ZNSt3__16vectorIN7atcoder13static_modintILi469762049ELPv0EEENS_9allocatorIS4_EEE9__end_capB8ue170006Ev, symObjAddr: 0xC1E0, symBinAddr: 0x10000CEFC, symSize: 0x28 }
  - { offsetInCU: 0x2094C, offset: 0x2094C, size: 0x8, addend: 0x0, symName: __ZNKSt3__16vectorIN7atcoder13static_modintILi469762049ELPv0EEENS_9allocatorIS4_EEE14__annotate_newB8ue170006Em, symObjAddr: 0xC208, symBinAddr: 0x10000CF24, symSize: 0xAC }
  - { offsetInCU: 0x2098B, offset: 0x2098B, size: 0x8, addend: 0x0, symName: __ZNSt3__116allocator_traitsINS_9allocatorIN7atcoder13static_modintILi469762049ELPv0EEEEEE8max_sizeB8ue170006IS6_vEEmRKS6_, symObjAddr: 0xC2B4, symBinAddr: 0x10000CFD0, symSize: 0x24 }
  - { offsetInCU: 0x209B9, offset: 0x209B9, size: 0x8, addend: 0x0, symName: __ZNKSt3__16vectorIN7atcoder13static_modintILi469762049ELPv0EEENS_9allocatorIS4_EEE7__allocB8ue170006Ev, symObjAddr: 0xC2D8, symBinAddr: 0x10000CFF4, symSize: 0x28 }
  - { offsetInCU: 0x209DF, offset: 0x209DF, size: 0x8, addend: 0x0, symName: __ZNKSt3__19allocatorIN7atcoder13static_modintILi469762049ELPv0EEEE8max_sizeB8ue170006Ev, symObjAddr: 0xC300, symBinAddr: 0x10000D01C, symSize: 0x14 }
  - { offsetInCU: 0x20A05, offset: 0x20A05, size: 0x8, addend: 0x0, symName: __ZNKSt3__117__compressed_pairIPN7atcoder13static_modintILi469762049ELPv0EEENS_9allocatorIS4_EEE6secondB8ue170006Ev, symObjAddr: 0xC314, symBinAddr: 0x10000D030, symSize: 0x24 }
  - { offsetInCU: 0x20A2B, offset: 0x20A2B, size: 0x8, addend: 0x0, symName: __ZNKSt3__122__compressed_pair_elemINS_9allocatorIN7atcoder13static_modintILi469762049ELPv0EEEEELi1ELb1EE5__getB8ue170006Ev, symObjAddr: 0xC338, symBinAddr: 0x10000D054, symSize: 0x14 }
  - { offsetInCU: 0x20A51, offset: 0x20A51, size: 0x8, addend: 0x0, symName: __ZNSt3__19allocatorIN7atcoder13static_modintILi469762049ELPv0EEEE8allocateB8ue170006Em, symObjAddr: 0xC34C, symBinAddr: 0x10000D068, symSize: 0x58 }
  - { offsetInCU: 0x20A85, offset: 0x20A85, size: 0x8, addend: 0x0, symName: __ZNSt3__117__compressed_pairIPN7atcoder13static_modintILi469762049ELPv0EEENS_9allocatorIS4_EEE6secondB8ue170006Ev, symObjAddr: 0xC3A4, symBinAddr: 0x10000D0C0, symSize: 0x24 }
  - { offsetInCU: 0x20AAB, offset: 0x20AAB, size: 0x8, addend: 0x0, symName: __ZNSt3__122__compressed_pair_elemINS_9allocatorIN7atcoder13static_modintILi469762049ELPv0EEEEELi1ELb1EE5__getB8ue170006Ev, symObjAddr: 0xC3C8, symBinAddr: 0x10000D0E4, symSize: 0x14 }
  - { offsetInCU: 0x20AD1, offset: 0x20AD1, size: 0x8, addend: 0x0, symName: __ZNSt3__117__compressed_pairIPN7atcoder13static_modintILi469762049ELPv0EEENS_9allocatorIS4_EEE5firstB8ue170006Ev, symObjAddr: 0xC3DC, symBinAddr: 0x10000D0F8, symSize: 0x24 }
  - { offsetInCU: 0x20AF7, offset: 0x20AF7, size: 0x8, addend: 0x0, symName: __ZNSt3__122__compressed_pair_elemIPN7atcoder13static_modintILi469762049ELPv0EEELi0ELb0EE5__getB8ue170006Ev, symObjAddr: 0xC400, symBinAddr: 0x10000D11C, symSize: 0x14 }
  - { offsetInCU: 0x20B1D, offset: 0x20B1D, size: 0x8, addend: 0x0, symName: __ZNKSt3__16vectorIN7atcoder13static_modintILi469762049ELPv0EEENS_9allocatorIS4_EEE31__annotate_contiguous_containerB8ue170006EPKvS9_S9_S9_, symObjAddr: 0xC414, symBinAddr: 0x10000D130, symSize: 0x20 }
  - { offsetInCU: 0x20B6F, offset: 0x20B6F, size: 0x8, addend: 0x0, symName: __ZNKSt3__16vectorIN7atcoder13static_modintILi469762049ELPv0EEENS_9allocatorIS4_EEE4dataB8ue170006Ev, symObjAddr: 0xC434, symBinAddr: 0x10000D150, symSize: 0x28 }
  - { offsetInCU: 0x20B95, offset: 0x20B95, size: 0x8, addend: 0x0, symName: __ZNKSt3__16vectorIN7atcoder13static_modintILi469762049ELPv0EEENS_9allocatorIS4_EEE8capacityB8ue170006Ev, symObjAddr: 0xC45C, symBinAddr: 0x10000D178, symSize: 0x40 }
  - { offsetInCU: 0x20BBB, offset: 0x20BBB, size: 0x8, addend: 0x0, symName: __ZNKSt3__16vectorIN7atcoder13static_modintILi469762049ELPv0EEENS_9allocatorIS4_EEE9__end_capB8ue170006Ev, symObjAddr: 0xC4B0, symBinAddr: 0x10000D1CC, symSize: 0x28 }
  - { offsetInCU: 0x20BE1, offset: 0x20BE1, size: 0x8, addend: 0x0, symName: __ZNKSt3__117__compressed_pairIPN7atcoder13static_modintILi469762049ELPv0EEENS_9allocatorIS4_EEE5firstB8ue170006Ev, symObjAddr: 0xC4D8, symBinAddr: 0x10000D1F4, symSize: 0x24 }
  - { offsetInCU: 0x20C07, offset: 0x20C07, size: 0x8, addend: 0x0, symName: __ZNKSt3__122__compressed_pair_elemIPN7atcoder13static_modintILi469762049ELPv0EEELi0ELb0EE5__getB8ue170006Ev, symObjAddr: 0xC4FC, symBinAddr: 0x10000D218, symSize: 0x14 }
  - { offsetInCU: 0x20C46, offset: 0x20C46, size: 0x8, addend: 0x0, symName: __ZNSt3__16vectorIN7atcoder13static_modintILi469762049ELPv0EEENS_9allocatorIS4_EEE21_ConstructTransactionC1B8ue170006ERS7_m, symObjAddr: 0xC510, symBinAddr: 0x10000D22C, symSize: 0x3C }
  - { offsetInCU: 0x20C8E, offset: 0x20C8E, size: 0x8, addend: 0x0, symName: __ZNSt3__116allocator_traitsINS_9allocatorIN7atcoder13static_modintILi469762049ELPv0EEEEEE9constructB8ue170006IS5_JEvEEvRS6_PT_DpOT0_, symObjAddr: 0xC54C, symBinAddr: 0x10000D268, symSize: 0x2C }
  - { offsetInCU: 0x20CD0, offset: 0x20CD0, size: 0x8, addend: 0x0, symName: __ZNSt3__16vectorIN7atcoder13static_modintILi469762049ELPv0EEENS_9allocatorIS4_EEE21_ConstructTransactionD1B8ue170006Ev, symObjAddr: 0xC578, symBinAddr: 0x10000D294, symSize: 0x2C }
  - { offsetInCU: 0x20CFA, offset: 0x20CFA, size: 0x8, addend: 0x0, symName: __ZNSt3__16vectorIN7atcoder13static_modintILi469762049ELPv0EEENS_9allocatorIS4_EEE21_ConstructTransactionC2B8ue170006ERS7_m, symObjAddr: 0xC5A4, symBinAddr: 0x10000D2C0, symSize: 0x44 }
  - { offsetInCU: 0x20D42, offset: 0x20D42, size: 0x8, addend: 0x0, symName: __ZNSt3__19allocatorIN7atcoder13static_modintILi469762049ELPv0EEEE9constructB8ue170006IS4_JEEEvPT_DpOT0_, symObjAddr: 0xC5E8, symBinAddr: 0x10000D304, symSize: 0x28 }
  - { offsetInCU: 0x20D84, offset: 0x20D84, size: 0x8, addend: 0x0, symName: __ZN7atcoder13static_modintILi469762049ELPv0EEC1Ev, symObjAddr: 0xC610, symBinAddr: 0x10000D32C, symSize: 0x2C }
  - { offsetInCU: 0x20DAE, offset: 0x20DAE, size: 0x8, addend: 0x0, symName: __ZN7atcoder13static_modintILi469762049ELPv0EEC2Ev, symObjAddr: 0xC63C, symBinAddr: 0x10000D358, symSize: 0x18 }
  - { offsetInCU: 0x20DD8, offset: 0x20DD8, size: 0x8, addend: 0x0, symName: __ZNSt3__16vectorIN7atcoder13static_modintILi469762049ELPv0EEENS_9allocatorIS4_EEE21_ConstructTransactionD2B8ue170006Ev, symObjAddr: 0xC654, symBinAddr: 0x10000D370, symSize: 0x20 }
  - { offsetInCU: 0x20E02, offset: 0x20E02, size: 0x8, addend: 0x0, symName: __ZNSt3__128__exception_guard_exceptionsINS_6vectorIN7atcoder13static_modintILi469762049ELPv0EEENS_9allocatorIS5_EEE16__destroy_vectorEED2B8ue170006Ev, symObjAddr: 0xC674, symBinAddr: 0x10000D390, symSize: 0x50 }
  - { offsetInCU: 0x20E2C, offset: 0x20E2C, size: 0x8, addend: 0x0, symName: __ZNSt3__16vectorIN7atcoder13static_modintILi469762049ELPv0EEENS_9allocatorIS4_EEE16__destroy_vectorclB8ue170006Ev, symObjAddr: 0xC6C4, symBinAddr: 0x10000D3E0, symSize: 0x90 }
  - { offsetInCU: 0x20E52, offset: 0x20E52, size: 0x8, addend: 0x0, symName: __ZNSt3__16vectorIN7atcoder13static_modintILi469762049ELPv0EEENS_9allocatorIS4_EEE7__clearB8ue170006Ev, symObjAddr: 0xC754, symBinAddr: 0x10000D470, symSize: 0x28 }
  - { offsetInCU: 0x20E78, offset: 0x20E78, size: 0x8, addend: 0x0, symName: __ZNKSt3__16vectorIN7atcoder13static_modintILi469762049ELPv0EEENS_9allocatorIS4_EEE17__annotate_deleteB8ue170006Ev, symObjAddr: 0xC77C, symBinAddr: 0x10000D498, symSize: 0xB8 }
  - { offsetInCU: 0x20E9E, offset: 0x20E9E, size: 0x8, addend: 0x0, symName: __ZNSt3__116allocator_traitsINS_9allocatorIN7atcoder13static_modintILi469762049ELPv0EEEEEE10deallocateB8ue170006ERS6_PS5_m, symObjAddr: 0xC834, symBinAddr: 0x10000D550, symSize: 0x34 }
  - { offsetInCU: 0x20EE0, offset: 0x20EE0, size: 0x8, addend: 0x0, symName: __ZNSt3__16vectorIN7atcoder13static_modintILi469762049ELPv0EEENS_9allocatorIS4_EEE22__base_destruct_at_endB8ue170006EPS4_, symObjAddr: 0xC868, symBinAddr: 0x10000D584, symSize: 0x8C }
  - { offsetInCU: 0x20F24, offset: 0x20F24, size: 0x8, addend: 0x0, symName: __ZNSt3__116allocator_traitsINS_9allocatorIN7atcoder13static_modintILi469762049ELPv0EEEEEE7destroyB8ue170006IS5_vEEvRS6_PT_, symObjAddr: 0xC8F4, symBinAddr: 0x10000D610, symSize: 0x2C }
  - { offsetInCU: 0x20F61, offset: 0x20F61, size: 0x8, addend: 0x0, symName: __ZNSt3__19allocatorIN7atcoder13static_modintILi469762049ELPv0EEEE7destroyB8ue170006EPS4_, symObjAddr: 0xC920, symBinAddr: 0x10000D63C, symSize: 0x14 }
  - { offsetInCU: 0x20F95, offset: 0x20F95, size: 0x8, addend: 0x0, symName: __ZNKSt3__16vectorIN7atcoder13static_modintILi469762049ELPv0EEENS_9allocatorIS4_EEE4sizeB8ue170006Ev, symObjAddr: 0xC934, symBinAddr: 0x10000D650, symSize: 0x28 }
  - { offsetInCU: 0x20FBB, offset: 0x20FBB, size: 0x8, addend: 0x0, symName: __ZNSt3__19allocatorIN7atcoder13static_modintILi469762049ELPv0EEEE10deallocateB8ue170006EPS4_m, symObjAddr: 0xC95C, symBinAddr: 0x10000D678, symSize: 0x40 }
  - { offsetInCU: 0x20FFD, offset: 0x20FFD, size: 0x8, addend: 0x0, symName: __ZN7atcoder13static_modintILi469762049ELPv0EEC2IxLS1_0EEET_, symObjAddr: 0xC99C, symBinAddr: 0x10000D6B8, symSize: 0x8C }
  - { offsetInCU: 0x21060, offset: 0x21060, size: 0x8, addend: 0x0, symName: __ZN7atcoder13static_modintILi469762049ELPv0EE4umodEv, symObjAddr: 0xCA28, symBinAddr: 0x10000D744, symSize: 0xC }
  - { offsetInCU: 0x21074, offset: 0x21074, size: 0x8, addend: 0x0, symName: __ZNSt3__16vectorIN7atcoder13static_modintILi469762049ELPv0EEENS_9allocatorIS4_EEEC1B8ue170006Ev, symObjAddr: 0xCA34, symBinAddr: 0x10000D750, symSize: 0x2C }
  - { offsetInCU: 0x2109E, offset: 0x2109E, size: 0x8, addend: 0x0, symName: __ZN7atcoder13static_modintILi469762049ELPv0EEpLERKS2_, symObjAddr: 0xCAD0, symBinAddr: 0x10000D7EC, symSize: 0x78 }
  - { offsetInCU: 0x210D2, offset: 0x210D2, size: 0x8, addend: 0x0, symName: __ZNSt3__16vectorIN7atcoder13static_modintILi469762049ELPv0EEENS_9allocatorIS4_EEE6resizeEm, symObjAddr: 0xCB48, symBinAddr: 0x10000D864, symSize: 0x94 }
  - { offsetInCU: 0x21118, offset: 0x21118, size: 0x8, addend: 0x0, symName: __ZN7atcoder13static_modintILi469762049ELPv0EEmLERKS2_, symObjAddr: 0xD0F4, symBinAddr: 0x10000DE10, symSize: 0x78 }
  - { offsetInCU: 0x2115A, offset: 0x2115A, size: 0x8, addend: 0x0, symName: __ZN7atcoder13static_modintILi469762049ELPv0EEC1IiLS1_0EEET_, symObjAddr: 0xD6B8, symBinAddr: 0x10000E3D4, symSize: 0x34 }
  - { offsetInCU: 0x211A1, offset: 0x211A1, size: 0x8, addend: 0x0, symName: __ZNK7atcoder13static_modintILi469762049ELPv0EE3invEv, symObjAddr: 0xD6EC, symBinAddr: 0x10000E408, symSize: 0x7C }
  - { offsetInCU: 0x211C7, offset: 0x211C7, size: 0x8, addend: 0x0, symName: __ZNSt3__16vectorIN7atcoder13static_modintILi469762049ELPv0EEENS_9allocatorIS4_EEEC2B8ue170006Ev, symObjAddr: 0xD768, symBinAddr: 0x10000E484, symSize: 0x4C }
  - { offsetInCU: 0x211F1, offset: 0x211F1, size: 0x8, addend: 0x0, symName: __ZNSt3__16vectorIN7atcoder13static_modintILi469762049ELPv0EEENS_9allocatorIS4_EEE4swapERS7_, symObjAddr: 0xD7B4, symBinAddr: 0x10000E4D0, symSize: 0x84 }
  - { offsetInCU: 0x21228, offset: 0x21228, size: 0x8, addend: 0x0, symName: __ZNSt3__16vectorIN7atcoder13static_modintILi469762049ELPv0EEENS_9allocatorIS4_EEE8__appendEm, symObjAddr: 0xD888, symBinAddr: 0x10000E5A4, symSize: 0x108 }
  - { offsetInCU: 0x21283, offset: 0x21283, size: 0x8, addend: 0x0, symName: __ZNSt3__16vectorIN7atcoder13static_modintILi469762049ELPv0EEENS_9allocatorIS4_EEE17__destruct_at_endB8ue170006EPS4_, symObjAddr: 0xD990, symBinAddr: 0x10000E6AC, symSize: 0x4C }
  - { offsetInCU: 0x212C7, offset: 0x212C7, size: 0x8, addend: 0x0, symName: __ZNKSt3__16vectorIN7atcoder13static_modintILi469762049ELPv0EEENS_9allocatorIS4_EEE11__recommendB8ue170006Em, symObjAddr: 0xD9DC, symBinAddr: 0x10000E6F8, symSize: 0xB4 }
  - { offsetInCU: 0x2131C, offset: 0x2131C, size: 0x8, addend: 0x0, symName: __ZNSt3__114__split_bufferIN7atcoder13static_modintILi469762049ELPv0EEERNS_9allocatorIS4_EEEC1EmmS7_, symObjAddr: 0xDA90, symBinAddr: 0x10000E7AC, symSize: 0x44 }
  - { offsetInCU: 0x21372, offset: 0x21372, size: 0x8, addend: 0x0, symName: __ZNSt3__114__split_bufferIN7atcoder13static_modintILi469762049ELPv0EEERNS_9allocatorIS4_EEE18__construct_at_endEm, symObjAddr: 0xDAD4, symBinAddr: 0x10000E7F0, symSize: 0xB4 }
  - { offsetInCU: 0x213B7, offset: 0x213B7, size: 0x8, addend: 0x0, symName: __ZNSt3__114__split_bufferIN7atcoder13static_modintILi469762049ELPv0EEERNS_9allocatorIS4_EEED1Ev, symObjAddr: 0xDC98, symBinAddr: 0x10000E9B4, symSize: 0x2C }
  - { offsetInCU: 0x213E3, offset: 0x213E3, size: 0x8, addend: 0x0, symName: __ZNSt3__114__split_bufferIN7atcoder13static_modintILi469762049ELPv0EEERNS_9allocatorIS4_EEEC2EmmS7_, symObjAddr: 0xDCC4, symBinAddr: 0x10000E9E0, symSize: 0xD4 }
  - { offsetInCU: 0x21456, offset: 0x21456, size: 0x8, addend: 0x0, symName: __ZNSt3__117__compressed_pairIPN7atcoder13static_modintILi469762049ELPv0EEERNS_9allocatorIS4_EEEC1B8ue170006IDnS8_EEOT_OT0_, symObjAddr: 0xDD98, symBinAddr: 0x10000EAB4, symSize: 0x3C }
  - { offsetInCU: 0x214AE, offset: 0x214AE, size: 0x8, addend: 0x0, symName: __ZNSt3__114__split_bufferIN7atcoder13static_modintILi469762049ELPv0EEERNS_9allocatorIS4_EEE7__allocB8ue170006Ev, symObjAddr: 0xDDD4, symBinAddr: 0x10000EAF0, symSize: 0x28 }
  - { offsetInCU: 0x214D4, offset: 0x214D4, size: 0x8, addend: 0x0, symName: __ZNSt3__114__split_bufferIN7atcoder13static_modintILi469762049ELPv0EEERNS_9allocatorIS4_EEE9__end_capB8ue170006Ev, symObjAddr: 0xDDFC, symBinAddr: 0x10000EB18, symSize: 0x28 }
  - { offsetInCU: 0x214FA, offset: 0x214FA, size: 0x8, addend: 0x0, symName: __ZNSt3__117__compressed_pairIPN7atcoder13static_modintILi469762049ELPv0EEERNS_9allocatorIS4_EEEC2B8ue170006IDnS8_EEOT_OT0_, symObjAddr: 0xDE24, symBinAddr: 0x10000EB40, symSize: 0x48 }
  - { offsetInCU: 0x21552, offset: 0x21552, size: 0x8, addend: 0x0, symName: __ZNSt3__122__compressed_pair_elemIRNS_9allocatorIN7atcoder13static_modintILi469762049ELPv0EEEEELi1ELb0EEC2B8ue170006IS7_vEEOT_, symObjAddr: 0xDE6C, symBinAddr: 0x10000EB88, symSize: 0x20 }
  - { offsetInCU: 0x21594, offset: 0x21594, size: 0x8, addend: 0x0, symName: __ZNSt3__117__compressed_pairIPN7atcoder13static_modintILi469762049ELPv0EEERNS_9allocatorIS4_EEE6secondB8ue170006Ev, symObjAddr: 0xDE8C, symBinAddr: 0x10000EBA8, symSize: 0x28 }
  - { offsetInCU: 0x215BA, offset: 0x215BA, size: 0x8, addend: 0x0, symName: __ZNSt3__122__compressed_pair_elemIRNS_9allocatorIN7atcoder13static_modintILi469762049ELPv0EEEEELi1ELb0EE5__getB8ue170006Ev, symObjAddr: 0xDEB4, symBinAddr: 0x10000EBD0, symSize: 0x18 }
  - { offsetInCU: 0x215E0, offset: 0x215E0, size: 0x8, addend: 0x0, symName: __ZNSt3__117__compressed_pairIPN7atcoder13static_modintILi469762049ELPv0EEERNS_9allocatorIS4_EEE5firstB8ue170006Ev, symObjAddr: 0xDECC, symBinAddr: 0x10000EBE8, symSize: 0x24 }
  - { offsetInCU: 0x21610, offset: 0x21610, size: 0x8, addend: 0x0, symName: __ZNSt3__114__split_bufferIN7atcoder13static_modintILi469762049ELPv0EEERNS_9allocatorIS4_EEE21_ConstructTransactionC1B8ue170006EPPS4_m, symObjAddr: 0xDEF0, symBinAddr: 0x10000EC0C, symSize: 0x3C }
  - { offsetInCU: 0x21656, offset: 0x21656, size: 0x8, addend: 0x0, symName: __ZNSt3__114__split_bufferIN7atcoder13static_modintILi469762049ELPv0EEERNS_9allocatorIS4_EEE21_ConstructTransactionD1B8ue170006Ev, symObjAddr: 0xDF2C, symBinAddr: 0x10000EC48, symSize: 0x2C }
  - { offsetInCU: 0x21680, offset: 0x21680, size: 0x8, addend: 0x0, symName: __ZNSt3__114__split_bufferIN7atcoder13static_modintILi469762049ELPv0EEERNS_9allocatorIS4_EEE21_ConstructTransactionC2B8ue170006EPPS4_m, symObjAddr: 0xDF58, symBinAddr: 0x10000EC74, symSize: 0x44 }
  - { offsetInCU: 0x216C6, offset: 0x216C6, size: 0x8, addend: 0x0, symName: __ZNSt3__114__split_bufferIN7atcoder13static_modintILi469762049ELPv0EEERNS_9allocatorIS4_EEE21_ConstructTransactionD2B8ue170006Ev, symObjAddr: 0xDF9C, symBinAddr: 0x10000ECB8, symSize: 0x20 }
  - { offsetInCU: 0x216F0, offset: 0x216F0, size: 0x8, addend: 0x0, symName: __ZNSt3__116reverse_iteratorIPN7atcoder13static_modintILi469762049ELPv0EEEEC1B8ue170006ES5_, symObjAddr: 0xE034, symBinAddr: 0x10000ED50, symSize: 0x34 }
  - { offsetInCU: 0x21728, offset: 0x21728, size: 0x8, addend: 0x0, symName: __ZNKSt3__116reverse_iteratorIPN7atcoder13static_modintILi469762049ELPv0EEEE4baseB8ue170006Ev, symObjAddr: 0xE068, symBinAddr: 0x10000ED84, symSize: 0x18 }
  - { offsetInCU: 0x21768, offset: 0x21768, size: 0x8, addend: 0x0, symName: __ZNKSt3__111__move_loopINS_17_ClassicAlgPolicyEEclB8ue170006INS_16reverse_iteratorIPN7atcoder13static_modintILi469762049ELPv0EEEEESA_SA_EENS_4pairIT_T1_EESC_T0_SD_, symObjAddr: 0xE370, symBinAddr: 0x10000F08C, symSize: 0xA0 }
  - { offsetInCU: 0x217D9, offset: 0x217D9, size: 0x8, addend: 0x0, symName: __ZNSt3__18_IterOpsINS_17_ClassicAlgPolicyEE11__iter_moveB8ue170006IRNS_16reverse_iteratorIPN7atcoder13static_modintILi469762049ELPv0EEEEEEENS_9enable_ifIXsr12is_referenceIDTdeclsr3stdE7declvalIRT_EEEEE5valueEDTclsr3stdE4movedeclsr3stdE7declvalISE_EEEEE4typeEOSD_, symObjAddr: 0xE5A4, symBinAddr: 0x10000F2C0, symSize: 0x28 }
  - { offsetInCU: 0x21805, offset: 0x21805, size: 0x8, addend: 0x0, symName: __ZNKSt3__116reverse_iteratorIPN7atcoder13static_modintILi469762049ELPv0EEEEdeB8ue170006Ev, symObjAddr: 0xE5CC, symBinAddr: 0x10000F2E8, symSize: 0x28 }
  - { offsetInCU: 0x21839, offset: 0x21839, size: 0x8, addend: 0x0, symName: __ZNSt3__116reverse_iteratorIPN7atcoder13static_modintILi469762049ELPv0EEEEppB8ue170006Ev, symObjAddr: 0xE5F4, symBinAddr: 0x10000F310, symSize: 0x20 }
  - { offsetInCU: 0x2185F, offset: 0x2185F, size: 0x8, addend: 0x0, symName: __ZNSt3__18_IterOpsINS_17_ClassicAlgPolicyEE25__validate_iter_referenceB8ue170006IRNS_16reverse_iteratorIPN7atcoder13static_modintILi469762049ELPv0EEEEEEEvv, symObjAddr: 0xE614, symBinAddr: 0x10000F330, symSize: 0x4 }
  - { offsetInCU: 0x2187D, offset: 0x2187D, size: 0x8, addend: 0x0, symName: __ZNSt3__118__unwrap_iter_implINS_16reverse_iteratorIPN7atcoder13static_modintILi469762049ELPv0EEEEELb0EE8__unwrapB8ue170006ES7_, symObjAddr: 0xE618, symBinAddr: 0x10000F334, symSize: 0x24 }
  - { offsetInCU: 0x218A6, offset: 0x218A6, size: 0x8, addend: 0x0, symName: __ZNSt3__14pairINS_16reverse_iteratorIPN7atcoder13static_modintILi469762049ELPv0EEEEES7_EC1B8ue170006IS7_S7_LS4_0EEEOT_OT0_, symObjAddr: 0xE63C, symBinAddr: 0x10000F358, symSize: 0x3C }
  - { offsetInCU: 0x21904, offset: 0x21904, size: 0x8, addend: 0x0, symName: __ZNSt3__14pairINS_16reverse_iteratorIPN7atcoder13static_modintILi469762049ELPv0EEEEES7_EC2B8ue170006IS7_S7_LS4_0EEEOT_OT0_, symObjAddr: 0xE678, symBinAddr: 0x10000F394, symSize: 0x34 }
  - { offsetInCU: 0x21962, offset: 0x21962, size: 0x8, addend: 0x0, symName: __ZNSt3__118__unwrap_iter_implINS_16reverse_iteratorIPN7atcoder13static_modintILi469762049ELPv0EEEEELb0EE8__rewrapB8ue170006ES7_S7_, symObjAddr: 0xE6AC, symBinAddr: 0x10000F3C8, symSize: 0x2C }
  - { offsetInCU: 0x2198F, offset: 0x2198F, size: 0x8, addend: 0x0, symName: __ZNSt3__116reverse_iteratorIPN7atcoder13static_modintILi469762049ELPv0EEEEC2B8ue170006ES5_, symObjAddr: 0xE6D8, symBinAddr: 0x10000F3F4, symSize: 0x28 }
  - { offsetInCU: 0x219C7, offset: 0x219C7, size: 0x8, addend: 0x0, symName: __ZNSt3__114__split_bufferIN7atcoder13static_modintILi469762049ELPv0EEERNS_9allocatorIS4_EEED2Ev, symObjAddr: 0xE700, symBinAddr: 0x10000F41C, symSize: 0x8C }
  - { offsetInCU: 0x219F3, offset: 0x219F3, size: 0x8, addend: 0x0, symName: __ZNSt3__114__split_bufferIN7atcoder13static_modintILi469762049ELPv0EEERNS_9allocatorIS4_EEE5clearB8ue170006Ev, symObjAddr: 0xE78C, symBinAddr: 0x10000F4A8, symSize: 0x28 }
  - { offsetInCU: 0x21A19, offset: 0x21A19, size: 0x8, addend: 0x0, symName: __ZNKSt3__114__split_bufferIN7atcoder13static_modintILi469762049ELPv0EEERNS_9allocatorIS4_EEE8capacityB8ue170006Ev, symObjAddr: 0xE7B4, symBinAddr: 0x10000F4D0, symSize: 0x40 }
  - { offsetInCU: 0x21A3F, offset: 0x21A3F, size: 0x8, addend: 0x0, symName: __ZNSt3__114__split_bufferIN7atcoder13static_modintILi469762049ELPv0EEERNS_9allocatorIS4_EEE17__destruct_at_endB8ue170006EPS4_, symObjAddr: 0xE7F4, symBinAddr: 0x10000F510, symSize: 0x2C }
  - { offsetInCU: 0x21A73, offset: 0x21A73, size: 0x8, addend: 0x0, symName: __ZNSt3__114__split_bufferIN7atcoder13static_modintILi469762049ELPv0EEERNS_9allocatorIS4_EEE17__destruct_at_endB8ue170006EPS4_NS_17integral_constantIbLb0EEE, symObjAddr: 0xE820, symBinAddr: 0x10000F53C, symSize: 0x80 }
  - { offsetInCU: 0x21AB3, offset: 0x21AB3, size: 0x8, addend: 0x0, symName: __ZNKSt3__114__split_bufferIN7atcoder13static_modintILi469762049ELPv0EEERNS_9allocatorIS4_EEE9__end_capB8ue170006Ev, symObjAddr: 0xE8A0, symBinAddr: 0x10000F5BC, symSize: 0x28 }
  - { offsetInCU: 0x21AD9, offset: 0x21AD9, size: 0x8, addend: 0x0, symName: __ZNKSt3__117__compressed_pairIPN7atcoder13static_modintILi469762049ELPv0EEERNS_9allocatorIS4_EEE5firstB8ue170006Ev, symObjAddr: 0xE8C8, symBinAddr: 0x10000F5E4, symSize: 0x24 }
  - { offsetInCU: 0x21AFF, offset: 0x21AFF, size: 0x8, addend: 0x0, symName: __ZNKSt3__16vectorIN7atcoder13static_modintILi469762049ELPv0EEENS_9allocatorIS4_EEE17__annotate_shrinkB8ue170006Em, symObjAddr: 0xE8EC, symBinAddr: 0x10000F608, symSize: 0xB4 }
  - { offsetInCU: 0x21B34, offset: 0x21B34, size: 0x8, addend: 0x0, symName: __ZN7atcoder13static_modintILi469762049ELPv0EE3modEv, symObjAddr: 0xE9A0, symBinAddr: 0x10000F6BC, symSize: 0xC }
  - { offsetInCU: 0x21B48, offset: 0x21B48, size: 0x8, addend: 0x0, symName: __ZNK7atcoder13static_modintILi469762049ELPv0EE3powEx, symObjAddr: 0xE9AC, symBinAddr: 0x10000F6C8, symSize: 0xD8 }
  - { offsetInCU: 0x21B98, offset: 0x21B98, size: 0x8, addend: 0x0, symName: __ZN7atcoder13static_modintILi469762049ELPv0EEmIERKS2_, symObjAddr: 0xEB0C, symBinAddr: 0x10000F828, symSize: 0x78 }
  - { offsetInCU: 0x21BCC, offset: 0x21BCC, size: 0x8, addend: 0x0, symName: __ZN7atcoder13static_modintILi469762049ELPv0EEC1IyLS1_0EEET_, symObjAddr: 0xEB84, symBinAddr: 0x10000F8A0, symSize: 0x34 }
  - { offsetInCU: 0x21C13, offset: 0x21C13, size: 0x8, addend: 0x0, symName: __ZN7atcoder13static_modintILi469762049ELPv0EEC2IyLS1_0EEET_, symObjAddr: 0xEBB8, symBinAddr: 0x10000F8D4, symSize: 0x58 }
  - { offsetInCU: 0x21C5A, offset: 0x21C5A, size: 0x8, addend: 0x0, symName: __ZN7atcoder13static_modintILi469762049ELPv0EEC2IiLS1_0EEET_, symObjAddr: 0xEC10, symBinAddr: 0x10000F92C, symSize: 0x8C }
  - { offsetInCU: 0x21CBD, offset: 0x21CBD, size: 0x8, addend: 0x0, symName: __ZNSt3__16vectorIN7atcoder13static_modintILi469762049ELPv0EEENS_9allocatorIS4_EEEC2B8ue170006EOS7_, symObjAddr: 0xEC9C, symBinAddr: 0x10000F9B8, symSize: 0xC4 }
  - { offsetInCU: 0x21CFE, offset: 0x21CFE, size: 0x8, addend: 0x0, symName: __ZNSt3__117__compressed_pairIPN7atcoder13static_modintILi469762049ELPv0EEENS_9allocatorIS4_EEEC1B8ue170006IDnS7_EEOT_OT0_, symObjAddr: 0xED60, symBinAddr: 0x10000FA7C, symSize: 0x3C }
  - { offsetInCU: 0x21D56, offset: 0x21D56, size: 0x8, addend: 0x0, symName: __ZNSt3__117__compressed_pairIPN7atcoder13static_modintILi469762049ELPv0EEENS_9allocatorIS4_EEEC2B8ue170006IDnS7_EEOT_OT0_, symObjAddr: 0xED9C, symBinAddr: 0x10000FAB8, symSize: 0x44 }
  - { offsetInCU: 0x21DAE, offset: 0x21DAE, size: 0x8, addend: 0x0, symName: __ZNSt3__122__compressed_pair_elemINS_9allocatorIN7atcoder13static_modintILi469762049ELPv0EEEEELi1ELb1EEC2B8ue170006IS6_vEEOT_, symObjAddr: 0xEDE0, symBinAddr: 0x10000FAFC, symSize: 0x18 }
  - { offsetInCU: 0x21DF0, offset: 0x21DF0, size: 0x8, addend: 0x0, symName: __ZNSt3__16vectorIN7atcoder13static_modintILi469762049ELPv0EEENS_9allocatorIS4_EEED2B8ue170006Ev, symObjAddr: 0xEDF8, symBinAddr: 0x10000FB14, symSize: 0x40 }
  - { offsetInCU: 0x21E1A, offset: 0x21E1A, size: 0x8, addend: 0x0, symName: __ZNSt3__16vectorIxNS_9allocatorIxEEEC2Em, symObjAddr: 0xEE38, symBinAddr: 0x10000FB54, symSize: 0xD4 }
  - { offsetInCU: 0x21E6A, offset: 0x21E6A, size: 0x8, addend: 0x0, symName: __ZNSt3__16vectorIxNS_9allocatorIxEEE11__vallocateB8ue170006Em, symObjAddr: 0xEF4C, symBinAddr: 0x10000FC68, symSize: 0xAC }
  - { offsetInCU: 0x21EAE, offset: 0x21EAE, size: 0x8, addend: 0x0, symName: __ZNSt3__16vectorIxNS_9allocatorIxEEE18__construct_at_endEm, symObjAddr: 0xEFF8, symBinAddr: 0x10000FD14, symSize: 0xC8 }
  - { offsetInCU: 0x21F20, offset: 0x21F20, size: 0x8, addend: 0x0, symName: __ZNSt3__128__exception_guard_exceptionsINS_6vectorIxNS_9allocatorIxEEE16__destroy_vectorEE10__completeB8ue170006Ev, symObjAddr: 0xF0C0, symBinAddr: 0x10000FDDC, symSize: 0x1C }
  - { offsetInCU: 0x21F46, offset: 0x21F46, size: 0x8, addend: 0x0, symName: __ZNSt3__128__exception_guard_exceptionsINS_6vectorIxNS_9allocatorIxEEE16__destroy_vectorEED1B8ue170006Ev, symObjAddr: 0xF0DC, symBinAddr: 0x10000FDF8, symSize: 0x2C }
  - { offsetInCU: 0x21F70, offset: 0x21F70, size: 0x8, addend: 0x0, symName: __ZNSt3__128__exception_guard_exceptionsINS_6vectorIxNS_9allocatorIxEEE16__destroy_vectorEEC1B8ue170006ES5_, symObjAddr: 0xF108, symBinAddr: 0x10000FE24, symSize: 0x34 }
  - { offsetInCU: 0x21FA8, offset: 0x21FA8, size: 0x8, addend: 0x0, symName: __ZNSt3__128__exception_guard_exceptionsINS_6vectorIxNS_9allocatorIxEEE16__destroy_vectorEEC2B8ue170006ES5_, symObjAddr: 0xF13C, symBinAddr: 0x10000FE58, symSize: 0x24 }
  - { offsetInCU: 0x21FE0, offset: 0x21FE0, size: 0x8, addend: 0x0, symName: __ZNKSt3__16vectorIxNS_9allocatorIxEEE8max_sizeEv, symObjAddr: 0xF160, symBinAddr: 0x10000FE7C, symSize: 0x60 }
  - { offsetInCU: 0x22008, offset: 0x22008, size: 0x8, addend: 0x0, symName: __ZNKSt3__16vectorIxNS_9allocatorIxEEE20__throw_length_errorB8ue170006Ev, symObjAddr: 0xF1C0, symBinAddr: 0x10000FEDC, symSize: 0x1C }
  - { offsetInCU: 0x2202E, offset: 0x2202E, size: 0x8, addend: 0x0, symName: __ZNSt3__16vectorIxNS_9allocatorIxEEE9__end_capB8ue170006Ev, symObjAddr: 0xF21C, symBinAddr: 0x10000FF38, symSize: 0x28 }
  - { offsetInCU: 0x22054, offset: 0x22054, size: 0x8, addend: 0x0, symName: __ZNKSt3__16vectorIxNS_9allocatorIxEEE14__annotate_newB8ue170006Em, symObjAddr: 0xF244, symBinAddr: 0x10000FF60, symSize: 0xAC }
  - { offsetInCU: 0x22093, offset: 0x22093, size: 0x8, addend: 0x0, symName: __ZNSt3__116allocator_traitsINS_9allocatorIxEEE8max_sizeB8ue170006IS2_vEEmRKS2_, symObjAddr: 0xF2F0, symBinAddr: 0x10001000C, symSize: 0x24 }
  - { offsetInCU: 0x220C1, offset: 0x220C1, size: 0x8, addend: 0x0, symName: __ZNKSt3__16vectorIxNS_9allocatorIxEEE7__allocB8ue170006Ev, symObjAddr: 0xF314, symBinAddr: 0x100010030, symSize: 0x28 }
  - { offsetInCU: 0x220E7, offset: 0x220E7, size: 0x8, addend: 0x0, symName: __ZNKSt3__19allocatorIxE8max_sizeB8ue170006Ev, symObjAddr: 0xF33C, symBinAddr: 0x100010058, symSize: 0x14 }
  - { offsetInCU: 0x2210D, offset: 0x2210D, size: 0x8, addend: 0x0, symName: __ZNKSt3__117__compressed_pairIPxNS_9allocatorIxEEE6secondB8ue170006Ev, symObjAddr: 0xF350, symBinAddr: 0x10001006C, symSize: 0x24 }
  - { offsetInCU: 0x22133, offset: 0x22133, size: 0x8, addend: 0x0, symName: __ZNKSt3__122__compressed_pair_elemINS_9allocatorIxEELi1ELb1EE5__getB8ue170006Ev, symObjAddr: 0xF374, symBinAddr: 0x100010090, symSize: 0x14 }
  - { offsetInCU: 0x22159, offset: 0x22159, size: 0x8, addend: 0x0, symName: __ZNSt3__19allocatorIxE8allocateB8ue170006Em, symObjAddr: 0xF388, symBinAddr: 0x1000100A4, symSize: 0x58 }
  - { offsetInCU: 0x2218D, offset: 0x2218D, size: 0x8, addend: 0x0, symName: __ZNSt3__117__compressed_pairIPxNS_9allocatorIxEEE5firstB8ue170006Ev, symObjAddr: 0xF3E0, symBinAddr: 0x1000100FC, symSize: 0x24 }
  - { offsetInCU: 0x221B3, offset: 0x221B3, size: 0x8, addend: 0x0, symName: __ZNSt3__122__compressed_pair_elemIPxLi0ELb0EE5__getB8ue170006Ev, symObjAddr: 0xF404, symBinAddr: 0x100010120, symSize: 0x14 }
  - { offsetInCU: 0x221F2, offset: 0x221F2, size: 0x8, addend: 0x0, symName: __ZNSt3__16vectorIxNS_9allocatorIxEEE21_ConstructTransactionC1B8ue170006ERS3_m, symObjAddr: 0xF418, symBinAddr: 0x100010134, symSize: 0x3C }
  - { offsetInCU: 0x2223A, offset: 0x2223A, size: 0x8, addend: 0x0, symName: __ZNSt3__116allocator_traitsINS_9allocatorIxEEE9constructB8ue170006IxJEvEEvRS2_PT_DpOT0_, symObjAddr: 0xF454, symBinAddr: 0x100010170, symSize: 0x2C }
  - { offsetInCU: 0x2227C, offset: 0x2227C, size: 0x8, addend: 0x0, symName: __ZNSt3__16vectorIxNS_9allocatorIxEEE21_ConstructTransactionD1B8ue170006Ev, symObjAddr: 0xF480, symBinAddr: 0x10001019C, symSize: 0x2C }
  - { offsetInCU: 0x222A6, offset: 0x222A6, size: 0x8, addend: 0x0, symName: __ZNSt3__16vectorIxNS_9allocatorIxEEE21_ConstructTransactionC2B8ue170006ERS3_m, symObjAddr: 0xF4AC, symBinAddr: 0x1000101C8, symSize: 0x44 }
  - { offsetInCU: 0x222EE, offset: 0x222EE, size: 0x8, addend: 0x0, symName: __ZNSt3__19allocatorIxE9constructB8ue170006IxJEEEvPT_DpOT0_, symObjAddr: 0xF4F0, symBinAddr: 0x10001020C, symSize: 0x1C }
  - { offsetInCU: 0x22330, offset: 0x22330, size: 0x8, addend: 0x0, symName: __ZNSt3__16vectorIxNS_9allocatorIxEEE21_ConstructTransactionD2B8ue170006Ev, symObjAddr: 0xF50C, symBinAddr: 0x100010228, symSize: 0x20 }
  - { offsetInCU: 0x2235A, offset: 0x2235A, size: 0x8, addend: 0x0, symName: __ZNSt3__128__exception_guard_exceptionsINS_6vectorIxNS_9allocatorIxEEE16__destroy_vectorEED2B8ue170006Ev, symObjAddr: 0xF52C, symBinAddr: 0x100010248, symSize: 0x48 }
  - { offsetInCU: 0x22384, offset: 0x22384, size: 0x8, addend: 0x0, symName: __ZNSt3__16vectorIxNS_9allocatorIxEEEC2B8ue170006EOS3_, symObjAddr: 0xF574, symBinAddr: 0x100010290, symSize: 0xC4 }
  - { offsetInCU: 0x223C5, offset: 0x223C5, size: 0x8, addend: 0x0, symName: __ZNSt3__117__compressed_pairIPxNS_9allocatorIxEEEC1B8ue170006IDnS3_EEOT_OT0_, symObjAddr: 0xF638, symBinAddr: 0x100010354, symSize: 0x3C }
  - { offsetInCU: 0x2241D, offset: 0x2241D, size: 0x8, addend: 0x0, symName: __ZNSt3__117__compressed_pairIPxNS_9allocatorIxEEEC2B8ue170006IDnS3_EEOT_OT0_, symObjAddr: 0xF674, symBinAddr: 0x100010390, symSize: 0x44 }
  - { offsetInCU: 0x22475, offset: 0x22475, size: 0x8, addend: 0x0, symName: __ZNSt3__122__compressed_pair_elemINS_9allocatorIxEELi1ELb1EEC2B8ue170006IS2_vEEOT_, symObjAddr: 0xF6B8, symBinAddr: 0x1000103D4, symSize: 0x18 }
  - { offsetInCU: 0x224B7, offset: 0x224B7, size: 0x8, addend: 0x0, symName: __ZNSt3__16vectorIiNS_9allocatorIiEEED2B8ue170006Ev, symObjAddr: 0xF6D0, symBinAddr: 0x1000103EC, symSize: 0x44 }
  - { offsetInCU: 0x224E1, offset: 0x224E1, size: 0x8, addend: 0x0, symName: __ZNSt3__16vectorIiNS_9allocatorIiEEE16__destroy_vectorC1B8ue170006ERS3_, symObjAddr: 0xF714, symBinAddr: 0x100010430, symSize: 0x34 }
  - { offsetInCU: 0x2251A, offset: 0x2251A, size: 0x8, addend: 0x0, symName: __ZNSt3__16vectorIiNS_9allocatorIiEEE16__destroy_vectorclB8ue170006Ev, symObjAddr: 0xF748, symBinAddr: 0x100010464, symSize: 0x90 }
  - { offsetInCU: 0x22540, offset: 0x22540, size: 0x8, addend: 0x0, symName: __ZNSt3__16vectorIiNS_9allocatorIiEEE16__destroy_vectorC2B8ue170006ERS3_, symObjAddr: 0xF7D8, symBinAddr: 0x1000104F4, symSize: 0x20 }
  - { offsetInCU: 0x22579, offset: 0x22579, size: 0x8, addend: 0x0, symName: __ZNSt3__16vectorIiNS_9allocatorIiEEE7__clearB8ue170006Ev, symObjAddr: 0xF7F8, symBinAddr: 0x100010514, symSize: 0x28 }
  - { offsetInCU: 0x2259F, offset: 0x2259F, size: 0x8, addend: 0x0, symName: __ZNKSt3__16vectorIiNS_9allocatorIiEEE17__annotate_deleteB8ue170006Ev, symObjAddr: 0xF820, symBinAddr: 0x10001053C, symSize: 0xB8 }
  - { offsetInCU: 0x225C5, offset: 0x225C5, size: 0x8, addend: 0x0, symName: __ZNSt3__116allocator_traitsINS_9allocatorIiEEE10deallocateB8ue170006ERS2_Pim, symObjAddr: 0xF8D8, symBinAddr: 0x1000105F4, symSize: 0x34 }
  - { offsetInCU: 0x22607, offset: 0x22607, size: 0x8, addend: 0x0, symName: __ZNSt3__16vectorIiNS_9allocatorIiEEE7__allocB8ue170006Ev, symObjAddr: 0xF90C, symBinAddr: 0x100010628, symSize: 0x28 }
  - { offsetInCU: 0x2262D, offset: 0x2262D, size: 0x8, addend: 0x0, symName: __ZNKSt3__16vectorIiNS_9allocatorIiEEE8capacityB8ue170006Ev, symObjAddr: 0xF934, symBinAddr: 0x100010650, symSize: 0x40 }
  - { offsetInCU: 0x22653, offset: 0x22653, size: 0x8, addend: 0x0, symName: __ZNSt3__16vectorIiNS_9allocatorIiEEE22__base_destruct_at_endB8ue170006EPi, symObjAddr: 0xF974, symBinAddr: 0x100010690, symSize: 0x8C }
  - { offsetInCU: 0x22697, offset: 0x22697, size: 0x8, addend: 0x0, symName: __ZNSt3__116allocator_traitsINS_9allocatorIiEEE7destroyB8ue170006IivEEvRS2_PT_, symObjAddr: 0xFA00, symBinAddr: 0x10001071C, symSize: 0x2C }
  - { offsetInCU: 0x226D4, offset: 0x226D4, size: 0x8, addend: 0x0, symName: __ZNSt3__19allocatorIiE7destroyB8ue170006EPi, symObjAddr: 0xFA40, symBinAddr: 0x10001075C, symSize: 0x14 }
  - { offsetInCU: 0x22708, offset: 0x22708, size: 0x8, addend: 0x0, symName: __ZNKSt3__16vectorIiNS_9allocatorIiEEE31__annotate_contiguous_containerB8ue170006EPKvS5_S5_S5_, symObjAddr: 0xFA54, symBinAddr: 0x100010770, symSize: 0x20 }
  - { offsetInCU: 0x2275A, offset: 0x2275A, size: 0x8, addend: 0x0, symName: __ZNKSt3__16vectorIiNS_9allocatorIiEEE4dataB8ue170006Ev, symObjAddr: 0xFA74, symBinAddr: 0x100010790, symSize: 0x28 }
  - { offsetInCU: 0x22780, offset: 0x22780, size: 0x8, addend: 0x0, symName: __ZNSt3__19allocatorIiE10deallocateB8ue170006EPim, symObjAddr: 0xFA9C, symBinAddr: 0x1000107B8, symSize: 0x40 }
  - { offsetInCU: 0x227C2, offset: 0x227C2, size: 0x8, addend: 0x0, symName: __ZNSt3__117__compressed_pairIPiNS_9allocatorIiEEE6secondB8ue170006Ev, symObjAddr: 0xFADC, symBinAddr: 0x1000107F8, symSize: 0x24 }
  - { offsetInCU: 0x227E8, offset: 0x227E8, size: 0x8, addend: 0x0, symName: __ZNSt3__122__compressed_pair_elemINS_9allocatorIiEELi1ELb1EE5__getB8ue170006Ev, symObjAddr: 0xFB00, symBinAddr: 0x10001081C, symSize: 0x14 }
  - { offsetInCU: 0x2280E, offset: 0x2280E, size: 0x8, addend: 0x0, symName: __ZNKSt3__16vectorIiNS_9allocatorIiEEE9__end_capB8ue170006Ev, symObjAddr: 0xFB14, symBinAddr: 0x100010830, symSize: 0x28 }
  - { offsetInCU: 0x22834, offset: 0x22834, size: 0x8, addend: 0x0, symName: __ZNKSt3__117__compressed_pairIPiNS_9allocatorIiEEE5firstB8ue170006Ev, symObjAddr: 0xFB3C, symBinAddr: 0x100010858, symSize: 0x24 }
  - { offsetInCU: 0x2285A, offset: 0x2285A, size: 0x8, addend: 0x0, symName: __ZNKSt3__122__compressed_pair_elemIPiLi0ELb0EE5__getB8ue170006Ev, symObjAddr: 0xFB60, symBinAddr: 0x10001087C, symSize: 0x14 }
  - { offsetInCU: 0x22880, offset: 0x22880, size: 0x8, addend: 0x0, symName: __ZNSt3__16vectorIiNS_9allocatorIiEEEC2Em, symObjAddr: 0xFB74, symBinAddr: 0x100010890, symSize: 0xD4 }
  - { offsetInCU: 0x228D0, offset: 0x228D0, size: 0x8, addend: 0x0, symName: __ZNSt3__117__compressed_pairIPiNS_9allocatorIiEEEC1B8ue170006IDnNS_18__default_init_tagEEEOT_OT0_, symObjAddr: 0xFC48, symBinAddr: 0x100010964, symSize: 0x3C }
  - { offsetInCU: 0x22928, offset: 0x22928, size: 0x8, addend: 0x0, symName: __ZNSt3__16vectorIiNS_9allocatorIiEEE11__vallocateB8ue170006Em, symObjAddr: 0xFCC4, symBinAddr: 0x1000109E0, symSize: 0xAC }
  - { offsetInCU: 0x2296C, offset: 0x2296C, size: 0x8, addend: 0x0, symName: __ZNSt3__16vectorIiNS_9allocatorIiEEE18__construct_at_endEm, symObjAddr: 0xFD70, symBinAddr: 0x100010A8C, symSize: 0xC8 }
  - { offsetInCU: 0x229DE, offset: 0x229DE, size: 0x8, addend: 0x0, symName: __ZNSt3__128__exception_guard_exceptionsINS_6vectorIiNS_9allocatorIiEEE16__destroy_vectorEE10__completeB8ue170006Ev, symObjAddr: 0xFE38, symBinAddr: 0x100010B54, symSize: 0x1C }
  - { offsetInCU: 0x22A04, offset: 0x22A04, size: 0x8, addend: 0x0, symName: __ZNSt3__128__exception_guard_exceptionsINS_6vectorIiNS_9allocatorIiEEE16__destroy_vectorEED1B8ue170006Ev, symObjAddr: 0xFE54, symBinAddr: 0x100010B70, symSize: 0x2C }
  - { offsetInCU: 0x22A2E, offset: 0x22A2E, size: 0x8, addend: 0x0, symName: __ZNSt3__117__compressed_pairIPiNS_9allocatorIiEEEC2B8ue170006IDnNS_18__default_init_tagEEEOT_OT0_, symObjAddr: 0xFE80, symBinAddr: 0x100010B9C, symSize: 0x40 }
  - { offsetInCU: 0x22A86, offset: 0x22A86, size: 0x8, addend: 0x0, symName: __ZNSt3__122__compressed_pair_elemIPiLi0ELb0EEC2B8ue170006IDnvEEOT_, symObjAddr: 0xFEC0, symBinAddr: 0x100010BDC, symSize: 0x1C }
  - { offsetInCU: 0x22AC8, offset: 0x22AC8, size: 0x8, addend: 0x0, symName: __ZNSt3__122__compressed_pair_elemINS_9allocatorIiEELi1ELb1EEC2B8ue170006ENS_18__default_init_tagE, symObjAddr: 0xFEDC, symBinAddr: 0x100010BF8, symSize: 0x2C }
  - { offsetInCU: 0x22AFC, offset: 0x22AFC, size: 0x8, addend: 0x0, symName: __ZNSt3__19allocatorIiEC2B8ue170006Ev, symObjAddr: 0xFF08, symBinAddr: 0x100010C24, symSize: 0x2C }
  - { offsetInCU: 0x22B26, offset: 0x22B26, size: 0x8, addend: 0x0, symName: __ZNSt3__116__non_trivial_ifILb1ENS_9allocatorIiEEEC2B8ue170006Ev, symObjAddr: 0xFF34, symBinAddr: 0x100010C50, symSize: 0x14 }
  - { offsetInCU: 0x22B50, offset: 0x22B50, size: 0x8, addend: 0x0, symName: __ZNSt3__128__exception_guard_exceptionsINS_6vectorIiNS_9allocatorIiEEE16__destroy_vectorEEC1B8ue170006ES5_, symObjAddr: 0xFF48, symBinAddr: 0x100010C64, symSize: 0x34 }
  - { offsetInCU: 0x22B88, offset: 0x22B88, size: 0x8, addend: 0x0, symName: __ZNSt3__128__exception_guard_exceptionsINS_6vectorIiNS_9allocatorIiEEE16__destroy_vectorEEC2B8ue170006ES5_, symObjAddr: 0xFF7C, symBinAddr: 0x100010C98, symSize: 0x24 }
  - { offsetInCU: 0x22BC0, offset: 0x22BC0, size: 0x8, addend: 0x0, symName: __ZNKSt3__16vectorIiNS_9allocatorIiEEE8max_sizeEv, symObjAddr: 0xFFA0, symBinAddr: 0x100010CBC, symSize: 0x60 }
  - { offsetInCU: 0x22BE8, offset: 0x22BE8, size: 0x8, addend: 0x0, symName: __ZNKSt3__16vectorIiNS_9allocatorIiEEE20__throw_length_errorB8ue170006Ev, symObjAddr: 0x10000, symBinAddr: 0x100010D1C, symSize: 0x1C }
  - { offsetInCU: 0x22C0E, offset: 0x22C0E, size: 0x8, addend: 0x0, symName: __ZNSt3__16vectorIiNS_9allocatorIiEEE9__end_capB8ue170006Ev, symObjAddr: 0x1005C, symBinAddr: 0x100010D78, symSize: 0x28 }
  - { offsetInCU: 0x22C34, offset: 0x22C34, size: 0x8, addend: 0x0, symName: __ZNKSt3__16vectorIiNS_9allocatorIiEEE14__annotate_newB8ue170006Em, symObjAddr: 0x10084, symBinAddr: 0x100010DA0, symSize: 0xAC }
  - { offsetInCU: 0x22C73, offset: 0x22C73, size: 0x8, addend: 0x0, symName: __ZNSt3__116allocator_traitsINS_9allocatorIiEEE8max_sizeB8ue170006IS2_vEEmRKS2_, symObjAddr: 0x10130, symBinAddr: 0x100010E4C, symSize: 0x24 }
  - { offsetInCU: 0x22CA1, offset: 0x22CA1, size: 0x8, addend: 0x0, symName: __ZNKSt3__16vectorIiNS_9allocatorIiEEE7__allocB8ue170006Ev, symObjAddr: 0x10154, symBinAddr: 0x100010E70, symSize: 0x28 }
  - { offsetInCU: 0x22CC7, offset: 0x22CC7, size: 0x8, addend: 0x0, symName: __ZNKSt3__19allocatorIiE8max_sizeB8ue170006Ev, symObjAddr: 0x1017C, symBinAddr: 0x100010E98, symSize: 0x14 }
  - { offsetInCU: 0x22CED, offset: 0x22CED, size: 0x8, addend: 0x0, symName: __ZNKSt3__117__compressed_pairIPiNS_9allocatorIiEEE6secondB8ue170006Ev, symObjAddr: 0x10190, symBinAddr: 0x100010EAC, symSize: 0x24 }
  - { offsetInCU: 0x22D13, offset: 0x22D13, size: 0x8, addend: 0x0, symName: __ZNKSt3__122__compressed_pair_elemINS_9allocatorIiEELi1ELb1EE5__getB8ue170006Ev, symObjAddr: 0x101B4, symBinAddr: 0x100010ED0, symSize: 0x14 }
  - { offsetInCU: 0x22D39, offset: 0x22D39, size: 0x8, addend: 0x0, symName: __ZNSt3__19allocatorIiE8allocateB8ue170006Em, symObjAddr: 0x101C8, symBinAddr: 0x100010EE4, symSize: 0x58 }
  - { offsetInCU: 0x22D6D, offset: 0x22D6D, size: 0x8, addend: 0x0, symName: __ZNSt3__117__compressed_pairIPiNS_9allocatorIiEEE5firstB8ue170006Ev, symObjAddr: 0x10220, symBinAddr: 0x100010F3C, symSize: 0x24 }
  - { offsetInCU: 0x22D93, offset: 0x22D93, size: 0x8, addend: 0x0, symName: __ZNSt3__122__compressed_pair_elemIPiLi0ELb0EE5__getB8ue170006Ev, symObjAddr: 0x10244, symBinAddr: 0x100010F60, symSize: 0x14 }
  - { offsetInCU: 0x22DD2, offset: 0x22DD2, size: 0x8, addend: 0x0, symName: __ZNSt3__16vectorIiNS_9allocatorIiEEE21_ConstructTransactionC1B8ue170006ERS3_m, symObjAddr: 0x10258, symBinAddr: 0x100010F74, symSize: 0x3C }
  - { offsetInCU: 0x22E1A, offset: 0x22E1A, size: 0x8, addend: 0x0, symName: __ZNSt3__116allocator_traitsINS_9allocatorIiEEE9constructB8ue170006IiJEvEEvRS2_PT_DpOT0_, symObjAddr: 0x10294, symBinAddr: 0x100010FB0, symSize: 0x2C }
  - { offsetInCU: 0x22E5C, offset: 0x22E5C, size: 0x8, addend: 0x0, symName: __ZNSt3__16vectorIiNS_9allocatorIiEEE21_ConstructTransactionD1B8ue170006Ev, symObjAddr: 0x102C0, symBinAddr: 0x100010FDC, symSize: 0x2C }
  - { offsetInCU: 0x22E86, offset: 0x22E86, size: 0x8, addend: 0x0, symName: __ZNSt3__16vectorIiNS_9allocatorIiEEE21_ConstructTransactionC2B8ue170006ERS3_m, symObjAddr: 0x102EC, symBinAddr: 0x100011008, symSize: 0x44 }
  - { offsetInCU: 0x22ECE, offset: 0x22ECE, size: 0x8, addend: 0x0, symName: __ZNSt3__19allocatorIiE9constructB8ue170006IiJEEEvPT_DpOT0_, symObjAddr: 0x10330, symBinAddr: 0x10001104C, symSize: 0x1C }
  - { offsetInCU: 0x22F10, offset: 0x22F10, size: 0x8, addend: 0x0, symName: __ZNSt3__16vectorIiNS_9allocatorIiEEE21_ConstructTransactionD2B8ue170006Ev, symObjAddr: 0x1034C, symBinAddr: 0x100011068, symSize: 0x20 }
  - { offsetInCU: 0x22F3A, offset: 0x22F3A, size: 0x8, addend: 0x0, symName: __ZNSt3__128__exception_guard_exceptionsINS_6vectorIiNS_9allocatorIiEEE16__destroy_vectorEED2B8ue170006Ev, symObjAddr: 0x1036C, symBinAddr: 0x100011088, symSize: 0x48 }
  - { offsetInCU: 0x22F64, offset: 0x22F64, size: 0x8, addend: 0x0, symName: __ZNSt3__112__tuple_leafILm0ERxLb0EE3getB8ue170006Ev, symObjAddr: 0x10400, symBinAddr: 0x10001111C, symSize: 0x18 }
  - { offsetInCU: 0x22F8A, offset: 0x22F8A, size: 0x8, addend: 0x0, symName: __ZNSt3__112__tuple_leafILm1ERxLb0EE3getB8ue170006Ev, symObjAddr: 0x10418, symBinAddr: 0x100011134, symSize: 0x18 }
  - { offsetInCU: 0x22FB0, offset: 0x22FB0, size: 0x8, addend: 0x0, symName: __ZNSt3__16vectorIiNS_9allocatorIiEEE11__make_iterB8ue170006EPi, symObjAddr: 0x10430, symBinAddr: 0x10001114C, symSize: 0x30 }
  - { offsetInCU: 0x22FE5, offset: 0x22FE5, size: 0x8, addend: 0x0, symName: __ZNSt3__111__wrap_iterIPiEC1B8ue170006ES1_, symObjAddr: 0x10460, symBinAddr: 0x10001117C, symSize: 0x34 }
  - { offsetInCU: 0x2301D, offset: 0x2301D, size: 0x8, addend: 0x0, symName: __ZNSt3__111__wrap_iterIPiEC2B8ue170006ES1_, symObjAddr: 0x10494, symBinAddr: 0x1000111B0, symSize: 0x20 }
  - { offsetInCU: 0x23055, offset: 0x23055, size: 0x8, addend: 0x0, symName: __ZNSt3__16vectorIiNS_9allocatorIiEEEC2ERKS3_, symObjAddr: 0x104B4, symBinAddr: 0x1000111D0, symSize: 0x94 }
  - { offsetInCU: 0x23090, offset: 0x23090, size: 0x8, addend: 0x0, symName: __ZNSt3__116allocator_traitsINS_9allocatorIiEEE37select_on_container_copy_constructionB8ue170006IS2_vvEES2_RKS2_, symObjAddr: 0x10548, symBinAddr: 0x100011264, symSize: 0x10 }
  - { offsetInCU: 0x230C5, offset: 0x230C5, size: 0x8, addend: 0x0, symName: __ZNSt3__117__compressed_pairIPiNS_9allocatorIiEEEC1B8ue170006IDnS3_EEOT_OT0_, symObjAddr: 0x10558, symBinAddr: 0x100011274, symSize: 0x3C }
  - { offsetInCU: 0x2311D, offset: 0x2311D, size: 0x8, addend: 0x0, symName: __ZNSt3__16vectorIiNS_9allocatorIiEEE16__init_with_sizeB8ue170006IPiS5_EEvT_T0_m, symObjAddr: 0x10594, symBinAddr: 0x1000112B0, symSize: 0xB8 }
  - { offsetInCU: 0x23191, offset: 0x23191, size: 0x8, addend: 0x0, symName: __ZNSt3__117__compressed_pairIPiNS_9allocatorIiEEEC2B8ue170006IDnS3_EEOT_OT0_, symObjAddr: 0x1064C, symBinAddr: 0x100011368, symSize: 0x44 }
  - { offsetInCU: 0x231E9, offset: 0x231E9, size: 0x8, addend: 0x0, symName: __ZNSt3__122__compressed_pair_elemINS_9allocatorIiEELi1ELb1EEC2B8ue170006IS2_vEEOT_, symObjAddr: 0x10690, symBinAddr: 0x1000113AC, symSize: 0x18 }
  - { offsetInCU: 0x2322B, offset: 0x2322B, size: 0x8, addend: 0x0, symName: __ZNSt3__16vectorIiNS_9allocatorIiEEE18__construct_at_endIPiS5_EEvT_T0_m, symObjAddr: 0x106A8, symBinAddr: 0x1000113C4, symSize: 0x8C }
  - { offsetInCU: 0x232C1, offset: 0x232C1, size: 0x8, addend: 0x0, symName: __ZNSt3__14pairIPiS1_EC1B8ue170006IS1_S1_LPv0EEEOT_OT0_, symObjAddr: 0x108E4, symBinAddr: 0x100011600, symSize: 0x3C }
  - { offsetInCU: 0x2331F, offset: 0x2331F, size: 0x8, addend: 0x0, symName: __ZNSt3__14pairIPiS1_EC2B8ue170006IS1_S1_LPv0EEEOT_OT0_, symObjAddr: 0x10920, symBinAddr: 0x10001163C, symSize: 0x34 }
  - { offsetInCU: 0x23387, offset: 0x23387, size: 0x8, addend: 0x0, symName: __ZNKSt3__114__copy_trivialclB8ue170006IiiLi0EEENS_4pairIPT_PT0_EES4_S4_S6_, symObjAddr: 0x10AD0, symBinAddr: 0x1000117EC, symSize: 0x48 }
  - { offsetInCU: 0x233EF, offset: 0x233EF, size: 0x8, addend: 0x0, symName: __ZNSt3__14pairIPiS1_EC1B8ue170006IRS1_S1_LPv0EEEOT_OT0_, symObjAddr: 0x10C60, symBinAddr: 0x10001197C, symSize: 0x3C }
  - { offsetInCU: 0x2344D, offset: 0x2344D, size: 0x8, addend: 0x0, symName: __ZNSt3__14pairIPiS1_EC2B8ue170006IRS1_S1_LPv0EEEOT_OT0_, symObjAddr: 0x10C9C, symBinAddr: 0x1000119B8, symSize: 0x34 }
  - { offsetInCU: 0x234AB, offset: 0x234AB, size: 0x8, addend: 0x0, symName: __ZNSt3__118__unwrap_iter_implIPiLb1EE8__unwrapB8ue170006ES1_, symObjAddr: 0x10CD0, symBinAddr: 0x1000119EC, symSize: 0x24 }
  - { offsetInCU: 0x234CE, offset: 0x234CE, size: 0x8, addend: 0x0, symName: __ZNSt3__118__unwrap_iter_implIPiLb1EE8__rewrapB8ue170006ES1_S1_, symObjAddr: 0x10CF4, symBinAddr: 0x100011A10, symSize: 0x50 }
  - { offsetInCU: 0x234FF, offset: 0x234FF, size: 0x8, addend: 0x0, symName: __ZNKSt3__111__wrap_iterIPiEdeB8ue170006Ev, symObjAddr: 0x10D78, symBinAddr: 0x100011A94, symSize: 0x18 }
  - { offsetInCU: 0x23525, offset: 0x23525, size: 0x8, addend: 0x0, symName: __ZNSt3__111__wrap_iterIPiEppB8ue170006Ev, symObjAddr: 0x10D90, symBinAddr: 0x100011AAC, symSize: 0x20 }
  - { offsetInCU: 0x2354B, offset: 0x2354B, size: 0x8, addend: 0x0, symName: __ZNKSt3__111__wrap_iterIPiE4baseB8ue170006Ev, symObjAddr: 0x10DF8, symBinAddr: 0x100011B14, symSize: 0x18 }
  - { offsetInCU: 0x2357B, offset: 0x2357B, size: 0x8, addend: 0x0, symName: '__ZZN7atcoder8internal8sa_naiveERKNSt3__16vectorIiNS1_9allocatorIiEEEEENK3$_0clEii', symObjAddr: 0x1143C, symBinAddr: 0x100012158, symSize: 0x184 }
  - { offsetInCU: 0x235C1, offset: 0x235C1, size: 0x8, addend: 0x0, symName: __ZNSt3__18_IterOpsINS_17_ClassicAlgPolicyEE9iter_swapB8ue170006IRPiS5_EEvOT_OT0_, symObjAddr: 0x115C0, symBinAddr: 0x1000122DC, symSize: 0x34 }
  - { offsetInCU: 0x23604, offset: 0x23604, size: 0x8, addend: 0x0, symName: __ZNSt3__18_IterOpsINS_17_ClassicAlgPolicyEE9iter_swapB8ue170006IRPiS4_EEvOT_OT0_, symObjAddr: 0x11B48, symBinAddr: 0x100012864, symSize: 0x34 }
  - { offsetInCU: 0x23647, offset: 0x23647, size: 0x8, addend: 0x0, symName: __ZNKSt3__16vectorIiNS_9allocatorIiEEEixB8ue170006Em, symObjAddr: 0x1262C, symBinAddr: 0x100013348, symSize: 0x24 }
  - { offsetInCU: 0x2367E, offset: 0x2367E, size: 0x8, addend: 0x0, symName: __ZNSt3__18_IterOpsINS_17_ClassicAlgPolicyEE11__iter_moveB8ue170006IRPiEENS_9enable_ifIXsr12is_referenceIDTdeclsr3stdE7declvalIRT_EEEEE5valueEDTclsr3stdE4movedeclsr3stdE7declvalIS8_EEEEE4typeEOS7_, symObjAddr: 0x12854, symBinAddr: 0x100013570, symSize: 0x28 }
  - { offsetInCU: 0x236AA, offset: 0x236AA, size: 0x8, addend: 0x0, symName: __ZNSt3__18_IterOpsINS_17_ClassicAlgPolicyEE25__validate_iter_referenceB8ue170006IRPiEEvv, symObjAddr: 0x1287C, symBinAddr: 0x100013598, symSize: 0x4 }
  - { offsetInCU: 0x236C8, offset: 0x236C8, size: 0x8, addend: 0x0, symName: __ZNSt3__18_IterOpsINS_17_ClassicAlgPolicyEE4nextB8ue170006IPiEET_S5_S5_, symObjAddr: 0x12880, symBinAddr: 0x10001359C, symSize: 0x18 }
  - { offsetInCU: 0x236FE, offset: 0x236FE, size: 0x8, addend: 0x0, symName: __ZNSt3__18_IterOpsINS_17_ClassicAlgPolicyEE9iter_swapB8ue170006IPiS4_EEvOT_OT0_, symObjAddr: 0x13818, symBinAddr: 0x100014534, symSize: 0x34 }
  - { offsetInCU: 0x2375B, offset: 0x2375B, size: 0x8, addend: 0x0, symName: __ZNSt3__14pairIPibEC1B8ue170006IRS1_RbLPv0EEEOT_OT0_, symObjAddr: 0x13868, symBinAddr: 0x100014584, symSize: 0x3C }
  - { offsetInCU: 0x237B9, offset: 0x237B9, size: 0x8, addend: 0x0, symName: __ZNSt3__14pairIPibEC2B8ue170006IRS1_RbLPv0EEEOT_OT0_, symObjAddr: 0x138A4, symBinAddr: 0x1000145C0, symSize: 0x38 }
  - { offsetInCU: 0x23817, offset: 0x23817, size: 0x8, addend: 0x0, symName: __ZNSt3__118__unwrap_iter_implINS_11__wrap_iterIPiEELb1EE8__unwrapB8ue170006ES3_, symObjAddr: 0x138DC, symBinAddr: 0x1000145F8, symSize: 0x28 }
  - { offsetInCU: 0x23844, offset: 0x23844, size: 0x8, addend: 0x0, symName: __ZNSt3__119__to_address_helperINS_11__wrap_iterIPiEEvE6__callB8ue170006ERKS3_, symObjAddr: 0x13928, symBinAddr: 0x100014644, symSize: 0x30 }
  - { offsetInCU: 0x23867, offset: 0x23867, size: 0x8, addend: 0x0, symName: __ZNSt3__114pointer_traitsINS_11__wrap_iterIPiEEE10to_addressB8ue170006ES3_, symObjAddr: 0x13958, symBinAddr: 0x100014674, symSize: 0x2C }
  - { offsetInCU: 0x2388A, offset: 0x2388A, size: 0x8, addend: 0x0, symName: __ZNSt3__16vectorIiNS_9allocatorIiEEE4swapERS3_, symObjAddr: 0x15CE4, symBinAddr: 0x100016A00, symSize: 0x84 }
  - { offsetInCU: 0x238C1, offset: 0x238C1, size: 0x8, addend: 0x0, symName: __ZNKSt3__16vectorIiNS_9allocatorIiEEE11__make_iterB8ue170006EPKi, symObjAddr: 0x15DB8, symBinAddr: 0x100016AD4, symSize: 0x30 }
  - { offsetInCU: 0x238F6, offset: 0x238F6, size: 0x8, addend: 0x0, symName: __ZNSt3__111__wrap_iterIPKiEC1B8ue170006ES2_, symObjAddr: 0x15DE8, symBinAddr: 0x100016B04, symSize: 0x34 }
  - { offsetInCU: 0x2392E, offset: 0x2392E, size: 0x8, addend: 0x0, symName: __ZNSt3__111__wrap_iterIPKiEC2B8ue170006ES2_, symObjAddr: 0x15E1C, symBinAddr: 0x100016B38, symSize: 0x20 }
  - { offsetInCU: 0x23966, offset: 0x23966, size: 0x8, addend: 0x0, symName: __ZNSt3__16vectorIiNS_9allocatorIiEEEC1B8ue170006Ev, symObjAddr: 0x15E3C, symBinAddr: 0x100016B58, symSize: 0x2C }
  - { offsetInCU: 0x23990, offset: 0x23990, size: 0x8, addend: 0x0, symName: __ZNSt3__16vectorIiNS_9allocatorIiEEEC1B8ue170006ESt16initializer_listIiE, symObjAddr: 0x15E68, symBinAddr: 0x100016B84, symSize: 0x3C }
  - { offsetInCU: 0x239CB, offset: 0x239CB, size: 0x8, addend: 0x0, symName: __ZNSt3__16vectorIbNS_9allocatorIbEEEC1Em, symObjAddr: 0x15EA4, symBinAddr: 0x100016BC0, symSize: 0x34 }
  - { offsetInCU: 0x23A06, offset: 0x23A06, size: 0x8, addend: 0x0, symName: __ZNSt3__16vectorIbNS_9allocatorIbEEEixB8ue170006Em, symObjAddr: 0x15ED8, symBinAddr: 0x100016BF4, symSize: 0x3C }
  - { offsetInCU: 0x23A3B, offset: 0x23A3B, size: 0x8, addend: 0x0, symName: __ZNKSt3__115__bit_referenceINS_6vectorIbNS_9allocatorIbEEEELb1EEcvbB8ue170006Ev, symObjAddr: 0x15F14, symBinAddr: 0x100016C30, symSize: 0x2C }
  - { offsetInCU: 0x23A61, offset: 0x23A61, size: 0x8, addend: 0x0, symName: __ZNSt3__115__bit_referenceINS_6vectorIbNS_9allocatorIbEEEELb1EEaSB8ue170006Eb, symObjAddr: 0x15F40, symBinAddr: 0x100016C5C, symSize: 0x6C }
  - { offsetInCU: 0x23A95, offset: 0x23A95, size: 0x8, addend: 0x0, symName: __ZNSt3__16vectorIiNS_9allocatorIiEEEC1EmRKi, symObjAddr: 0x15FAC, symBinAddr: 0x100016CC8, symSize: 0x3C }
  - { offsetInCU: 0x23ADF, offset: 0x23ADF, size: 0x8, addend: 0x0, symName: __ZNSt3__16vectorIiNS_9allocatorIiEEE7reserveEm, symObjAddr: 0x15FE8, symBinAddr: 0x100016D04, symSize: 0xE8 }
  - { offsetInCU: 0x23B3B, offset: 0x23B3B, size: 0x8, addend: 0x0, symName: __ZNSt3__16vectorIiNS_9allocatorIiEEE9push_backB8ue170006ERKi, symObjAddr: 0x160D0, symBinAddr: 0x100016DEC, symSize: 0x6C }
  - { offsetInCU: 0x23B7C, offset: 0x23B7C, size: 0x8, addend: 0x0, symName: __ZZN7atcoder8internal5sa_isILi10ELi40EEENSt3__16vectorIiNS2_9allocatorIiEEEERKS6_iENKUlS8_E_clES8_, symObjAddr: 0x1613C, symBinAddr: 0x100016E58, symSize: 0x514 }
  - { offsetInCU: 0x23C79, offset: 0x23C79, size: 0x8, addend: 0x0, symName: __ZNSt3__16vectorIbNS_9allocatorIbEEED1B8ue170006Ev, symObjAddr: 0x16650, symBinAddr: 0x10001736C, symSize: 0x2C }
  - { offsetInCU: 0x23CA3, offset: 0x23CA3, size: 0x8, addend: 0x0, symName: __ZNSt3__16vectorIiNS_9allocatorIiEEEC2B8ue170006Ev, symObjAddr: 0x1667C, symBinAddr: 0x100017398, symSize: 0x4C }
  - { offsetInCU: 0x23CCD, offset: 0x23CCD, size: 0x8, addend: 0x0, symName: __ZNSt3__16vectorIiNS_9allocatorIiEEEC2B8ue170006ESt16initializer_listIiE, symObjAddr: 0x166C8, symBinAddr: 0x1000173E4, symSize: 0x120 }
  - { offsetInCU: 0x23D1D, offset: 0x23D1D, size: 0x8, addend: 0x0, symName: __ZNKSt16initializer_listIiE4sizeB8ue170006Ev, symObjAddr: 0x167E8, symBinAddr: 0x100017504, symSize: 0x18 }
  - { offsetInCU: 0x23D43, offset: 0x23D43, size: 0x8, addend: 0x0, symName: __ZNSt3__16vectorIiNS_9allocatorIiEEE18__construct_at_endIPKiS6_EEvT_T0_m, symObjAddr: 0x16800, symBinAddr: 0x10001751C, symSize: 0x8C }
  - { offsetInCU: 0x23DB9, offset: 0x23DB9, size: 0x8, addend: 0x0, symName: __ZNKSt16initializer_listIiE5beginB8ue170006Ev, symObjAddr: 0x1688C, symBinAddr: 0x1000175A8, symSize: 0x18 }
  - { offsetInCU: 0x23DDF, offset: 0x23DDF, size: 0x8, addend: 0x0, symName: __ZNKSt16initializer_listIiE3endB8ue170006Ev, symObjAddr: 0x168A4, symBinAddr: 0x1000175C0, symSize: 0x20 }
  - { offsetInCU: 0x23E25, offset: 0x23E25, size: 0x8, addend: 0x0, symName: __ZNSt3__14pairIPKiS2_EC1B8ue170006IS2_S2_LPv0EEEOT_OT0_, symObjAddr: 0x16A38, symBinAddr: 0x100017754, symSize: 0x3C }
  - { offsetInCU: 0x23E83, offset: 0x23E83, size: 0x8, addend: 0x0, symName: __ZNSt3__14pairIPKiS2_EC2B8ue170006IS2_S2_LPv0EEEOT_OT0_, symObjAddr: 0x16A74, symBinAddr: 0x100017790, symSize: 0x34 }
  - { offsetInCU: 0x23EE1, offset: 0x23EE1, size: 0x8, addend: 0x0, symName: __ZNSt3__118__unwrap_iter_implIPKiLb1EE8__unwrapB8ue170006ES2_, symObjAddr: 0x16AA8, symBinAddr: 0x1000177C4, symSize: 0x24 }
  - { offsetInCU: 0x23F1E, offset: 0x23F1E, size: 0x8, addend: 0x0, symName: __ZNKSt3__114__copy_trivialclB8ue170006IKiiLi0EEENS_4pairIPT_PT0_EES5_S5_S7_, symObjAddr: 0x16C5C, symBinAddr: 0x100017978, symSize: 0x48 }
  - { offsetInCU: 0x23F8B, offset: 0x23F8B, size: 0x8, addend: 0x0, symName: __ZNSt3__14pairIPKiPiEC1B8ue170006IRS2_S3_LPv0EEEOT_OT0_, symObjAddr: 0x16E24, symBinAddr: 0x100017B40, symSize: 0x3C }
  - { offsetInCU: 0x23FE9, offset: 0x23FE9, size: 0x8, addend: 0x0, symName: __ZNSt3__14pairIPKiPiEC2B8ue170006IRS2_S3_LPv0EEEOT_OT0_, symObjAddr: 0x16E60, symBinAddr: 0x100017B7C, symSize: 0x34 }
  - { offsetInCU: 0x24047, offset: 0x24047, size: 0x8, addend: 0x0, symName: __ZNSt3__14pairIPKiPiEC1B8ue170006IS2_S3_LPv0EEEOT_OT0_, symObjAddr: 0x16E94, symBinAddr: 0x100017BB0, symSize: 0x3C }
  - { offsetInCU: 0x240A5, offset: 0x240A5, size: 0x8, addend: 0x0, symName: __ZNSt3__14pairIPKiPiEC2B8ue170006IS2_S3_LPv0EEEOT_OT0_, symObjAddr: 0x16ED0, symBinAddr: 0x100017BEC, symSize: 0x34 }
  - { offsetInCU: 0x24103, offset: 0x24103, size: 0x8, addend: 0x0, symName: __ZNSt3__118__unwrap_iter_implIPKiLb1EE8__rewrapB8ue170006ES2_S2_, symObjAddr: 0x16F40, symBinAddr: 0x100017C5C, symSize: 0x50 }
  - { offsetInCU: 0x24134, offset: 0x24134, size: 0x8, addend: 0x0, symName: __ZNSt3__16vectorIbNS_9allocatorIbEEEC2Em, symObjAddr: 0x16F90, symBinAddr: 0x100017CAC, symSize: 0x88 }
  - { offsetInCU: 0x2416F, offset: 0x2416F, size: 0x8, addend: 0x0, symName: __ZNSt3__117__compressed_pairImNS_9allocatorImEEEC1B8ue170006IiNS_18__default_init_tagEEEOT_OT0_, symObjAddr: 0x17018, symBinAddr: 0x100017D34, symSize: 0x3C }
  - { offsetInCU: 0x241C7, offset: 0x241C7, size: 0x8, addend: 0x0, symName: __ZNSt3__16vectorIbNS_9allocatorIbEEE11__vallocateB8ue170006Em, symObjAddr: 0x17054, symBinAddr: 0x100017D70, symSize: 0xA0 }
  - { offsetInCU: 0x2420B, offset: 0x2420B, size: 0x8, addend: 0x0, symName: __ZNSt3__16vectorIbNS_9allocatorIbEEE18__construct_at_endB8ue170006Emb, symObjAddr: 0x170F4, symBinAddr: 0x100017E10, symSize: 0x108 }
  - { offsetInCU: 0x24260, offset: 0x24260, size: 0x8, addend: 0x0, symName: __ZNSt3__117__compressed_pairImNS_9allocatorImEEEC2B8ue170006IiNS_18__default_init_tagEEEOT_OT0_, symObjAddr: 0x171FC, symBinAddr: 0x100017F18, symSize: 0x40 }
  - { offsetInCU: 0x242B8, offset: 0x242B8, size: 0x8, addend: 0x0, symName: __ZNSt3__122__compressed_pair_elemImLi0ELb0EEC2B8ue170006IivEEOT_, symObjAddr: 0x1723C, symBinAddr: 0x100017F58, symSize: 0x24 }
  - { offsetInCU: 0x242FA, offset: 0x242FA, size: 0x8, addend: 0x0, symName: __ZNSt3__122__compressed_pair_elemINS_9allocatorImEELi1ELb1EEC2B8ue170006ENS_18__default_init_tagE, symObjAddr: 0x17260, symBinAddr: 0x100017F7C, symSize: 0x2C }
  - { offsetInCU: 0x2432E, offset: 0x2432E, size: 0x8, addend: 0x0, symName: __ZNSt3__19allocatorImEC2B8ue170006Ev, symObjAddr: 0x1728C, symBinAddr: 0x100017FA8, symSize: 0x2C }
  - { offsetInCU: 0x24358, offset: 0x24358, size: 0x8, addend: 0x0, symName: __ZNSt3__116__non_trivial_ifILb1ENS_9allocatorImEEEC2B8ue170006Ev, symObjAddr: 0x172B8, symBinAddr: 0x100017FD4, symSize: 0x14 }
  - { offsetInCU: 0x24382, offset: 0x24382, size: 0x8, addend: 0x0, symName: __ZNKSt3__16vectorIbNS_9allocatorIbEEE8max_sizeEv, symObjAddr: 0x172CC, symBinAddr: 0x100017FE8, symSize: 0x7C }
  - { offsetInCU: 0x243C8, offset: 0x243C8, size: 0x8, addend: 0x0, symName: __ZNKSt3__16vectorIbNS_9allocatorIbEEE20__throw_length_errorB8ue170006Ev, symObjAddr: 0x17348, symBinAddr: 0x100018064, symSize: 0x1C }
  - { offsetInCU: 0x243EE, offset: 0x243EE, size: 0x8, addend: 0x0, symName: __ZNSt3__16vectorIbNS_9allocatorIbEEE7__allocB8ue170006Ev, symObjAddr: 0x173A4, symBinAddr: 0x1000180C0, symSize: 0x28 }
  - { offsetInCU: 0x24414, offset: 0x24414, size: 0x8, addend: 0x0, symName: __ZNSt3__16vectorIbNS_9allocatorIbEEE26__external_cap_to_internalB8ue170006Em, symObjAddr: 0x173CC, symBinAddr: 0x1000180E8, symSize: 0x24 }
  - { offsetInCU: 0x24438, offset: 0x24438, size: 0x8, addend: 0x0, symName: __ZNSt3__16vectorIbNS_9allocatorIbEEE5__capB8ue170006Ev, symObjAddr: 0x173F0, symBinAddr: 0x10001810C, symSize: 0x28 }
  - { offsetInCU: 0x24468, offset: 0x24468, size: 0x8, addend: 0x0, symName: __ZNSt3__116allocator_traitsINS_9allocatorImEEE8max_sizeB8ue170006IS2_vEEmRKS2_, symObjAddr: 0x17418, symBinAddr: 0x100018134, symSize: 0x24 }
  - { offsetInCU: 0x24496, offset: 0x24496, size: 0x8, addend: 0x0, symName: __ZNKSt3__16vectorIbNS_9allocatorIbEEE7__allocB8ue170006Ev, symObjAddr: 0x1743C, symBinAddr: 0x100018158, symSize: 0x28 }
  - { offsetInCU: 0x244BC, offset: 0x244BC, size: 0x8, addend: 0x0, symName: __ZNSt3__114numeric_limitsImE3maxB8ue170006Ev, symObjAddr: 0x17464, symBinAddr: 0x100018180, symSize: 0x14 }
  - { offsetInCU: 0x244D0, offset: 0x244D0, size: 0x8, addend: 0x0, symName: __ZNSt3__16vectorIbNS_9allocatorIbEEE26__internal_cap_to_externalB8ue170006Em, symObjAddr: 0x17478, symBinAddr: 0x100018194, symSize: 0x18 }
  - { offsetInCU: 0x244F4, offset: 0x244F4, size: 0x8, addend: 0x0, symName: __ZNKSt3__19allocatorImE8max_sizeB8ue170006Ev, symObjAddr: 0x17490, symBinAddr: 0x1000181AC, symSize: 0x14 }
  - { offsetInCU: 0x2451A, offset: 0x2451A, size: 0x8, addend: 0x0, symName: __ZNKSt3__117__compressed_pairImNS_9allocatorImEEE6secondB8ue170006Ev, symObjAddr: 0x174A4, symBinAddr: 0x1000181C0, symSize: 0x24 }
  - { offsetInCU: 0x24540, offset: 0x24540, size: 0x8, addend: 0x0, symName: __ZNKSt3__122__compressed_pair_elemINS_9allocatorImEELi1ELb1EE5__getB8ue170006Ev, symObjAddr: 0x174C8, symBinAddr: 0x1000181E4, symSize: 0x14 }
  - { offsetInCU: 0x24566, offset: 0x24566, size: 0x8, addend: 0x0, symName: __ZNSt3__123__libcpp_numeric_limitsImLb1EE3maxB8ue170006Ev, symObjAddr: 0x174DC, symBinAddr: 0x1000181F8, symSize: 0x8 }
  - { offsetInCU: 0x2457A, offset: 0x2457A, size: 0x8, addend: 0x0, symName: __ZNSt3__19allocatorImE8allocateB8ue170006Em, symObjAddr: 0x174E4, symBinAddr: 0x100018200, symSize: 0x58 }
  - { offsetInCU: 0x245AE, offset: 0x245AE, size: 0x8, addend: 0x0, symName: __ZNSt3__117__compressed_pairImNS_9allocatorImEEE6secondB8ue170006Ev, symObjAddr: 0x1753C, symBinAddr: 0x100018258, symSize: 0x24 }
  - { offsetInCU: 0x245D4, offset: 0x245D4, size: 0x8, addend: 0x0, symName: __ZNSt3__122__compressed_pair_elemINS_9allocatorImEELi1ELb1EE5__getB8ue170006Ev, symObjAddr: 0x17560, symBinAddr: 0x10001827C, symSize: 0x14 }
  - { offsetInCU: 0x245FA, offset: 0x245FA, size: 0x8, addend: 0x0, symName: __ZNSt3__117__compressed_pairImNS_9allocatorImEEE5firstB8ue170006Ev, symObjAddr: 0x17574, symBinAddr: 0x100018290, symSize: 0x24 }
  - { offsetInCU: 0x24620, offset: 0x24620, size: 0x8, addend: 0x0, symName: __ZNSt3__122__compressed_pair_elemImLi0ELb0EE5__getB8ue170006Ev, symObjAddr: 0x17598, symBinAddr: 0x1000182B4, symSize: 0x14 }
  - { offsetInCU: 0x24646, offset: 0x24646, size: 0x8, addend: 0x0, symName: __ZNSt3__16vectorIbNS_9allocatorIbEEE11__make_iterB8ue170006Em, symObjAddr: 0x17640, symBinAddr: 0x10001835C, symSize: 0x64 }
  - { offsetInCU: 0x2467B, offset: 0x2467B, size: 0x8, addend: 0x0, symName: __ZNSt3__114__bit_iteratorINS_6vectorIbNS_9allocatorIbEEEELb0ELm0EEC1B8ue170006ERKS5_, symObjAddr: 0x17804, symBinAddr: 0x100018520, symSize: 0x34 }
  - { offsetInCU: 0x246B4, offset: 0x246B4, size: 0x8, addend: 0x0, symName: __ZNSt3__114__bit_iteratorINS_6vectorIbNS_9allocatorIbEEEELb0ELm0EEC2B8ue170006ERKS5_, symObjAddr: 0x17A64, symBinAddr: 0x100018780, symSize: 0x30 }
  - { offsetInCU: 0x246ED, offset: 0x246ED, size: 0x8, addend: 0x0, symName: __ZNSt3__114__bit_iteratorINS_6vectorIbNS_9allocatorIbEEEELb0ELm0EEC1B8ue170006EPmj, symObjAddr: 0x17B3C, symBinAddr: 0x100018858, symSize: 0x3C }
  - { offsetInCU: 0x24735, offset: 0x24735, size: 0x8, addend: 0x0, symName: __ZNSt3__114__bit_iteratorINS_6vectorIbNS_9allocatorIbEEEELb0ELm0EEC2B8ue170006EPmj, symObjAddr: 0x17B78, symBinAddr: 0x100018894, symSize: 0x2C }
  - { offsetInCU: 0x2477D, offset: 0x2477D, size: 0x8, addend: 0x0, symName: __ZNSt3__16vectorIbNS_9allocatorIbEEE10__make_refB8ue170006Em, symObjAddr: 0x17BA4, symBinAddr: 0x1000188C0, symSize: 0x60 }
  - { offsetInCU: 0x247B2, offset: 0x247B2, size: 0x8, addend: 0x0, symName: __ZNSt3__115__bit_referenceINS_6vectorIbNS_9allocatorIbEEEELb1EEC1B8ue170006EPmm, symObjAddr: 0x17C04, symBinAddr: 0x100018920, symSize: 0x3C }
  - { offsetInCU: 0x247F8, offset: 0x247F8, size: 0x8, addend: 0x0, symName: __ZNSt3__115__bit_referenceINS_6vectorIbNS_9allocatorIbEEEELb1EEC2B8ue170006EPmm, symObjAddr: 0x17C40, symBinAddr: 0x10001895C, symSize: 0x2C }
  - { offsetInCU: 0x2483E, offset: 0x2483E, size: 0x8, addend: 0x0, symName: __ZNSt3__16vectorIiNS_9allocatorIiEEEC2EmRKi, symObjAddr: 0x17C6C, symBinAddr: 0x100018988, symSize: 0xDC }
  - { offsetInCU: 0x2489D, offset: 0x2489D, size: 0x8, addend: 0x0, symName: __ZNSt3__16vectorIiNS_9allocatorIiEEE18__construct_at_endEmRKi, symObjAddr: 0x17D48, symBinAddr: 0x100018A64, symSize: 0xD0 }
  - { offsetInCU: 0x2491E, offset: 0x2491E, size: 0x8, addend: 0x0, symName: __ZNSt3__116allocator_traitsINS_9allocatorIiEEE9constructB8ue170006IiJRKiEvEEvRS2_PT_DpOT0_, symObjAddr: 0x17E18, symBinAddr: 0x100018B34, symSize: 0x34 }
  - { offsetInCU: 0x24975, offset: 0x24975, size: 0x8, addend: 0x0, symName: __ZNSt3__19allocatorIiE9constructB8ue170006IiJRKiEEEvPT_DpOT0_, symObjAddr: 0x17E4C, symBinAddr: 0x100018B68, symSize: 0x28 }
  - { offsetInCU: 0x249CB, offset: 0x249CB, size: 0x8, addend: 0x0, symName: __ZNSt3__114__split_bufferIiRNS_9allocatorIiEEEC1EmmS3_, symObjAddr: 0x17E74, symBinAddr: 0x100018B90, symSize: 0x44 }
  - { offsetInCU: 0x24A21, offset: 0x24A21, size: 0x8, addend: 0x0, symName: __ZNSt3__114__split_bufferIiRNS_9allocatorIiEEED1Ev, symObjAddr: 0x17FC8, symBinAddr: 0x100018CE4, symSize: 0x2C }
  - { offsetInCU: 0x24A4D, offset: 0x24A4D, size: 0x8, addend: 0x0, symName: __ZNSt3__114__split_bufferIiRNS_9allocatorIiEEEC2EmmS3_, symObjAddr: 0x17FF4, symBinAddr: 0x100018D10, symSize: 0xD4 }
  - { offsetInCU: 0x24AC0, offset: 0x24AC0, size: 0x8, addend: 0x0, symName: __ZNSt3__117__compressed_pairIPiRNS_9allocatorIiEEEC1B8ue170006IDnS4_EEOT_OT0_, symObjAddr: 0x180C8, symBinAddr: 0x100018DE4, symSize: 0x3C }
  - { offsetInCU: 0x24B18, offset: 0x24B18, size: 0x8, addend: 0x0, symName: __ZNSt3__114__split_bufferIiRNS_9allocatorIiEEE7__allocB8ue170006Ev, symObjAddr: 0x18104, symBinAddr: 0x100018E20, symSize: 0x28 }
  - { offsetInCU: 0x24B3E, offset: 0x24B3E, size: 0x8, addend: 0x0, symName: __ZNSt3__114__split_bufferIiRNS_9allocatorIiEEE9__end_capB8ue170006Ev, symObjAddr: 0x1812C, symBinAddr: 0x100018E48, symSize: 0x28 }
  - { offsetInCU: 0x24B64, offset: 0x24B64, size: 0x8, addend: 0x0, symName: __ZNSt3__117__compressed_pairIPiRNS_9allocatorIiEEEC2B8ue170006IDnS4_EEOT_OT0_, symObjAddr: 0x18154, symBinAddr: 0x100018E70, symSize: 0x48 }
  - { offsetInCU: 0x24BBC, offset: 0x24BBC, size: 0x8, addend: 0x0, symName: __ZNSt3__122__compressed_pair_elemIRNS_9allocatorIiEELi1ELb0EEC2B8ue170006IS3_vEEOT_, symObjAddr: 0x1819C, symBinAddr: 0x100018EB8, symSize: 0x20 }
  - { offsetInCU: 0x24BFE, offset: 0x24BFE, size: 0x8, addend: 0x0, symName: __ZNSt3__117__compressed_pairIPiRNS_9allocatorIiEEE6secondB8ue170006Ev, symObjAddr: 0x181BC, symBinAddr: 0x100018ED8, symSize: 0x28 }
  - { offsetInCU: 0x24C24, offset: 0x24C24, size: 0x8, addend: 0x0, symName: __ZNSt3__122__compressed_pair_elemIRNS_9allocatorIiEELi1ELb0EE5__getB8ue170006Ev, symObjAddr: 0x181E4, symBinAddr: 0x100018F00, symSize: 0x18 }
  - { offsetInCU: 0x24C4A, offset: 0x24C4A, size: 0x8, addend: 0x0, symName: __ZNSt3__117__compressed_pairIPiRNS_9allocatorIiEEE5firstB8ue170006Ev, symObjAddr: 0x181FC, symBinAddr: 0x100018F18, symSize: 0x24 }
  - { offsetInCU: 0x24C70, offset: 0x24C70, size: 0x8, addend: 0x0, symName: __ZNSt3__116reverse_iteratorIPiEC1B8ue170006ES1_, symObjAddr: 0x18298, symBinAddr: 0x100018FB4, symSize: 0x34 }
  - { offsetInCU: 0x24CA8, offset: 0x24CA8, size: 0x8, addend: 0x0, symName: __ZNKSt3__116reverse_iteratorIPiE4baseB8ue170006Ev, symObjAddr: 0x182CC, symBinAddr: 0x100018FE8, symSize: 0x18 }
  - { offsetInCU: 0x24CE8, offset: 0x24CE8, size: 0x8, addend: 0x0, symName: __ZNKSt3__111__move_loopINS_17_ClassicAlgPolicyEEclB8ue170006INS_16reverse_iteratorIPiEES6_S6_EENS_4pairIT_T1_EES8_T0_S9_, symObjAddr: 0x185D4, symBinAddr: 0x1000192F0, symSize: 0xA0 }
  - { offsetInCU: 0x24D53, offset: 0x24D53, size: 0x8, addend: 0x0, symName: __ZNSt3__18_IterOpsINS_17_ClassicAlgPolicyEE11__iter_moveB8ue170006IRNS_16reverse_iteratorIPiEEEENS_9enable_ifIXsr12is_referenceIDTdeclsr3stdE7declvalIRT_EEEEE5valueEDTclsr3stdE4movedeclsr3stdE7declvalISA_EEEEE4typeEOS9_, symObjAddr: 0x18808, symBinAddr: 0x100019524, symSize: 0x28 }
  - { offsetInCU: 0x24D7F, offset: 0x24D7F, size: 0x8, addend: 0x0, symName: __ZNKSt3__116reverse_iteratorIPiEdeB8ue170006Ev, symObjAddr: 0x18830, symBinAddr: 0x10001954C, symSize: 0x28 }
  - { offsetInCU: 0x24DB3, offset: 0x24DB3, size: 0x8, addend: 0x0, symName: __ZNSt3__116reverse_iteratorIPiEppB8ue170006Ev, symObjAddr: 0x18858, symBinAddr: 0x100019574, symSize: 0x20 }
  - { offsetInCU: 0x24DD9, offset: 0x24DD9, size: 0x8, addend: 0x0, symName: __ZNSt3__18_IterOpsINS_17_ClassicAlgPolicyEE25__validate_iter_referenceB8ue170006IRNS_16reverse_iteratorIPiEEEEvv, symObjAddr: 0x18878, symBinAddr: 0x100019594, symSize: 0x4 }
  - { offsetInCU: 0x24DF7, offset: 0x24DF7, size: 0x8, addend: 0x0, symName: __ZNSt3__118__unwrap_iter_implINS_16reverse_iteratorIPiEELb0EE8__unwrapB8ue170006ES3_, symObjAddr: 0x1887C, symBinAddr: 0x100019598, symSize: 0x24 }
  - { offsetInCU: 0x24E20, offset: 0x24E20, size: 0x8, addend: 0x0, symName: __ZNSt3__14pairINS_16reverse_iteratorIPiEES3_EC1B8ue170006IS3_S3_LPv0EEEOT_OT0_, symObjAddr: 0x188A0, symBinAddr: 0x1000195BC, symSize: 0x3C }
  - { offsetInCU: 0x24E7E, offset: 0x24E7E, size: 0x8, addend: 0x0, symName: __ZNSt3__14pairINS_16reverse_iteratorIPiEES3_EC2B8ue170006IS3_S3_LPv0EEEOT_OT0_, symObjAddr: 0x188DC, symBinAddr: 0x1000195F8, symSize: 0x34 }
  - { offsetInCU: 0x24EDC, offset: 0x24EDC, size: 0x8, addend: 0x0, symName: __ZNSt3__118__unwrap_iter_implINS_16reverse_iteratorIPiEELb0EE8__rewrapB8ue170006ES3_S3_, symObjAddr: 0x18910, symBinAddr: 0x10001962C, symSize: 0x2C }
  - { offsetInCU: 0x24F09, offset: 0x24F09, size: 0x8, addend: 0x0, symName: __ZNSt3__116reverse_iteratorIPiEC2B8ue170006ES1_, symObjAddr: 0x1893C, symBinAddr: 0x100019658, symSize: 0x28 }
  - { offsetInCU: 0x24F41, offset: 0x24F41, size: 0x8, addend: 0x0, symName: __ZNSt3__114__split_bufferIiRNS_9allocatorIiEEED2Ev, symObjAddr: 0x18964, symBinAddr: 0x100019680, symSize: 0x8C }
  - { offsetInCU: 0x24F6D, offset: 0x24F6D, size: 0x8, addend: 0x0, symName: __ZNSt3__114__split_bufferIiRNS_9allocatorIiEEE5clearB8ue170006Ev, symObjAddr: 0x189F0, symBinAddr: 0x10001970C, symSize: 0x28 }
  - { offsetInCU: 0x24F93, offset: 0x24F93, size: 0x8, addend: 0x0, symName: __ZNKSt3__114__split_bufferIiRNS_9allocatorIiEEE8capacityB8ue170006Ev, symObjAddr: 0x18A18, symBinAddr: 0x100019734, symSize: 0x40 }
  - { offsetInCU: 0x24FB9, offset: 0x24FB9, size: 0x8, addend: 0x0, symName: __ZNSt3__114__split_bufferIiRNS_9allocatorIiEEE17__destruct_at_endB8ue170006EPi, symObjAddr: 0x18A58, symBinAddr: 0x100019774, symSize: 0x2C }
  - { offsetInCU: 0x24FED, offset: 0x24FED, size: 0x8, addend: 0x0, symName: __ZNSt3__114__split_bufferIiRNS_9allocatorIiEEE17__destruct_at_endB8ue170006EPiNS_17integral_constantIbLb0EEE, symObjAddr: 0x18A84, symBinAddr: 0x1000197A0, symSize: 0x80 }
  - { offsetInCU: 0x2502D, offset: 0x2502D, size: 0x8, addend: 0x0, symName: __ZNKSt3__114__split_bufferIiRNS_9allocatorIiEEE9__end_capB8ue170006Ev, symObjAddr: 0x18B04, symBinAddr: 0x100019820, symSize: 0x28 }
  - { offsetInCU: 0x25053, offset: 0x25053, size: 0x8, addend: 0x0, symName: __ZNKSt3__117__compressed_pairIPiRNS_9allocatorIiEEE5firstB8ue170006Ev, symObjAddr: 0x18B2C, symBinAddr: 0x100019848, symSize: 0x24 }
  - { offsetInCU: 0x25079, offset: 0x25079, size: 0x8, addend: 0x0, symName: __ZNSt3__16vectorIiNS_9allocatorIiEEE22__construct_one_at_endB8ue170006IJRKiEEEvDpOT_, symObjAddr: 0x18B50, symBinAddr: 0x10001986C, symSize: 0x90 }
  - { offsetInCU: 0x250C8, offset: 0x250C8, size: 0x8, addend: 0x0, symName: __ZNSt3__16vectorIiNS_9allocatorIiEEE21__push_back_slow_pathIRKiEEvOT_, symObjAddr: 0x18BE0, symBinAddr: 0x1000198FC, symSize: 0xD8 }
  - { offsetInCU: 0x25126, offset: 0x25126, size: 0x8, addend: 0x0, symName: __ZNKSt3__16vectorIiNS_9allocatorIiEEE11__recommendB8ue170006Em, symObjAddr: 0x18CB8, symBinAddr: 0x1000199D4, symSize: 0xB4 }
  - { offsetInCU: 0x2519B, offset: 0x2519B, size: 0x8, addend: 0x0, symName: __ZNSt3__14pairINS_11__wrap_iterIPiEES3_EC1B8ue170006IS3_S3_LPv0EEEOT_OT0_, symObjAddr: 0x1924C, symBinAddr: 0x100019F68, symSize: 0x3C }
  - { offsetInCU: 0x251F9, offset: 0x251F9, size: 0x8, addend: 0x0, symName: __ZNSt3__14pairINS_11__wrap_iterIPiEES3_EC2B8ue170006IS3_S3_LPv0EEEOT_OT0_, symObjAddr: 0x19288, symBinAddr: 0x100019FA4, symSize: 0x34 }
  - { offsetInCU: 0x25257, offset: 0x25257, size: 0x8, addend: 0x0, symName: __ZNSt3__118__unwrap_iter_implINS_11__wrap_iterIPiEELb1EE8__rewrapB8ue170006ES3_S2_, symObjAddr: 0x192BC, symBinAddr: 0x100019FD8, symSize: 0x5C }
  - { offsetInCU: 0x25288, offset: 0x25288, size: 0x8, addend: 0x0, symName: __ZNKSt3__111__wrap_iterIPiEplB8ue170006El, symObjAddr: 0x19318, symBinAddr: 0x10001A034, symSize: 0x3C }
  - { offsetInCU: 0x252CA, offset: 0x252CA, size: 0x8, addend: 0x0, symName: __ZNSt3__111__wrap_iterIPiEpLB8ue170006El, symObjAddr: 0x19354, symBinAddr: 0x10001A070, symSize: 0x28 }
  - { offsetInCU: 0x252FE, offset: 0x252FE, size: 0x8, addend: 0x0, symName: __ZNSt3__16vectorIbNS_9allocatorIbEEED2B8ue170006Ev, symObjAddr: 0x1937C, symBinAddr: 0x10001A098, symSize: 0x44 }
  - { offsetInCU: 0x25328, offset: 0x25328, size: 0x8, addend: 0x0, symName: __ZNSt3__16vectorIbNS_9allocatorIbEEE16__destroy_vectorC1B8ue170006ERS3_, symObjAddr: 0x193C0, symBinAddr: 0x10001A0DC, symSize: 0x34 }
  - { offsetInCU: 0x25361, offset: 0x25361, size: 0x8, addend: 0x0, symName: __ZNSt3__16vectorIbNS_9allocatorIbEEE16__destroy_vectorclB8ue170006Ev, symObjAddr: 0x193F4, symBinAddr: 0x10001A110, symSize: 0x7C }
  - { offsetInCU: 0x25387, offset: 0x25387, size: 0x8, addend: 0x0, symName: __ZNSt3__16vectorIbNS_9allocatorIbEEE16__destroy_vectorC2B8ue170006ERS3_, symObjAddr: 0x19470, symBinAddr: 0x10001A18C, symSize: 0x20 }
  - { offsetInCU: 0x253C0, offset: 0x253C0, size: 0x8, addend: 0x0, symName: __ZNSt3__116allocator_traitsINS_9allocatorImEEE10deallocateB8ue170006ERS2_Pmm, symObjAddr: 0x19490, symBinAddr: 0x10001A1AC, symSize: 0x34 }
  - { offsetInCU: 0x25402, offset: 0x25402, size: 0x8, addend: 0x0, symName: __ZNSt3__19allocatorImE10deallocateB8ue170006EPmm, symObjAddr: 0x194C4, symBinAddr: 0x10001A1E0, symSize: 0x40 }
  - { offsetInCU: 0x25444, offset: 0x25444, size: 0x8, addend: 0x0, symName: __ZNKSt3__112basic_stringIcNS_11char_traitsIcEENS_9allocatorIcEEE9__is_longB8ue170006Ev, symObjAddr: 0x19504, symBinAddr: 0x10001A220, symSize: 0x38 }
  - { offsetInCU: 0x2546A, offset: 0x2546A, size: 0x8, addend: 0x0, symName: __ZNKSt3__112basic_stringIcNS_11char_traitsIcEENS_9allocatorIcEEE15__get_long_sizeB8ue170006Ev, symObjAddr: 0x1953C, symBinAddr: 0x10001A258, symSize: 0x28 }
  - { offsetInCU: 0x25490, offset: 0x25490, size: 0x8, addend: 0x0, symName: __ZNKSt3__112basic_stringIcNS_11char_traitsIcEENS_9allocatorIcEEE16__get_short_sizeB8ue170006Ev, symObjAddr: 0x19564, symBinAddr: 0x10001A280, symSize: 0x34 }
  - { offsetInCU: 0x254B6, offset: 0x254B6, size: 0x8, addend: 0x0, symName: __ZNKSt3__117__compressed_pairINS_12basic_stringIcNS_11char_traitsIcEENS_9allocatorIcEEE5__repES5_E5firstB8ue170006Ev, symObjAddr: 0x19598, symBinAddr: 0x10001A2B4, symSize: 0x24 }
  - { offsetInCU: 0x254DC, offset: 0x254DC, size: 0x8, addend: 0x0, symName: __ZNKSt3__122__compressed_pair_elemINS_12basic_stringIcNS_11char_traitsIcEENS_9allocatorIcEEE5__repELi0ELb0EE5__getB8ue170006Ev, symObjAddr: 0x195BC, symBinAddr: 0x10001A2D8, symSize: 0x14 }
  - { offsetInCU: 0x25502, offset: 0x25502, size: 0x8, addend: 0x0, symName: __ZNKSt3__112basic_stringIcNS_11char_traitsIcEENS_9allocatorIcEEE4dataB8ue170006Ev, symObjAddr: 0x195D0, symBinAddr: 0x10001A2EC, symSize: 0x28 }
  - { offsetInCU: 0x25528, offset: 0x25528, size: 0x8, addend: 0x0, symName: __ZNKSt3__112basic_stringIcNS_11char_traitsIcEENS_9allocatorIcEEE13__get_pointerB8ue170006Ev, symObjAddr: 0x1960C, symBinAddr: 0x10001A328, symSize: 0x54 }
  - { offsetInCU: 0x2554E, offset: 0x2554E, size: 0x8, addend: 0x0, symName: __ZNKSt3__112basic_stringIcNS_11char_traitsIcEENS_9allocatorIcEEE18__get_long_pointerB8ue170006Ev, symObjAddr: 0x19660, symBinAddr: 0x10001A37C, symSize: 0x28 }
  - { offsetInCU: 0x25574, offset: 0x25574, size: 0x8, addend: 0x0, symName: __ZNKSt3__112basic_stringIcNS_11char_traitsIcEENS_9allocatorIcEEE19__get_short_pointerB8ue170006Ev, symObjAddr: 0x19688, symBinAddr: 0x10001A3A4, symSize: 0x28 }
  - { offsetInCU: 0x2559A, offset: 0x2559A, size: 0x8, addend: 0x0, symName: __ZNSt3__114pointer_traitsIPKcE10pointer_toB8ue170006ERS1_, symObjAddr: 0x196B0, symBinAddr: 0x10001A3CC, symSize: 0x14 }
  - { offsetInCU: 0x255BD, offset: 0x255BD, size: 0x8, addend: 0x0, symName: __ZNKSt3__16vectorIxNS_9allocatorIxEEE20__throw_out_of_rangeB8ue170006Ev, symObjAddr: 0x196C4, symBinAddr: 0x10001A3E0, symSize: 0x1C }
  - { offsetInCU: 0x255E3, offset: 0x255E3, size: 0x8, addend: 0x0, symName: __ZNSt12out_of_rangeC1B8ue170006EPKc, symObjAddr: 0x19744, symBinAddr: 0x10001A460, symSize: 0x34 }
  - { offsetInCU: 0x2561B, offset: 0x2561B, size: 0x8, addend: 0x0, symName: __ZNSt12out_of_rangeC2B8ue170006EPKc, symObjAddr: 0x19778, symBinAddr: 0x10001A494, symSize: 0x4C }
  - { offsetInCU: 0x25653, offset: 0x25653, size: 0x8, addend: 0x0, symName: __ZNKSt3__19basic_iosIcNS_11char_traitsIcEEE5widenB8ue170006Ec, symObjAddr: 0x197C4, symBinAddr: 0x10001A4E0, symSize: 0x84 }
  - { offsetInCU: 0x256BC, offset: 0x256BC, size: 0x8, addend: 0x0, symName: __ZNKSt3__15ctypeIcE5widenB8ue170006Ec, symObjAddr: 0x19874, symBinAddr: 0x10001A590, symSize: 0x38 }
...
